(dp0
V980626228
p1
(Vhttps://www.ricardo.ch/de/a/rotlackvase-china-antik-h-ca.18cm-980626228/
p2
V//style-6a38.kxcdn.com/latest/lib/images/not-loaded.png
p3
tp4
sV1028019410
p5
(Vhttps://www.ricardo.ch/de/a/royal-winterling-tasse-blumen-1028019410/
p6
Vhttps://img.ricardostatic.ch/t_265/pl/1028019410/0/1
p7
tp8
sV1042808668
p9
(Vhttps://www.ricardo.ch/de/a/rote-koralle-buddha-china-mitte-20.-jh.-1042808668/
p10
V//style-6a38.kxcdn.com/latest/lib/images/not-loaded.png
p11
tp12
sV1041983356
p13
(Vhttps://www.ricardo.ch/de/a/chinesisches-aquarell-vergoldeter-rahmen-1041983356/
p14
V//style-6a38.kxcdn.com/latest/lib/images/not-loaded.png
p15
tp16
sV1043174522
p17
(Vhttps://www.ricardo.ch/de/a/zwei-chop-stick-cloisonne-1043174522/
p18
Vhttps://img.ricardostatic.ch/t_265/pl/1043174522/0/1
p19
tp20
sV965170254
p21
(Vhttps://www.ricardo.ch/de/a/china-antiker-kolorierter-holzschnitt-965170254/
p22
V//style-6a38.kxcdn.com/latest/lib/images/not-loaded.png
p23
tp24
sV978500634
p25
(Vhttps://www.ricardo.ch/de/a/chinesisches-in-stein-geritztes-bild-978500634/
p26
V//style-6a38.kxcdn.com/latest/lib/images/not-loaded.png
p27
tp28
sV1032661782
p29
(Vhttps://www.ricardo.ch/de/a/alte-chinesische-schaelchen-'mille-fleur'-1032661782/
p30
V//style-6a38.kxcdn.com/latest/lib/images/not-loaded.png
p31
tp32
sV1010553886
p33
(Vhttps://www.ricardo.ch/de/a/marionette-aus-china-1010553886/
p34
V//style-6a38.kxcdn.com/latest/lib/images/not-loaded.png
p35
tp36
sV1043293718
p37
(Vhttps://www.ricardo.ch/de/a/porzellan-bild-china-1043293718/
p38
Vhttps://img.ricardostatic.ch/t_265/pl/1043293718/4/1
p39
tp40
sV1042120956
p41
(Vhttps://www.ricardo.ch/de/a/antike-china-chinesisch-asiatik-medaille-1042120956/
p42
V//style-6a38.kxcdn.com/latest/lib/images/not-loaded.png
p43
tp44
sV863144790
p45
(Vhttps://www.ricardo.ch/de/a/buddha-in-halbplastischer-ausformung-863144790/
p46
V//style-6a38.kxcdn.com/latest/lib/images/not-loaded.png
p47
tp48
sV1041991278
p49
(Vhttps://www.ricardo.ch/de/a/antike-chinesische-qing-kommode-schrank-1041991278/
p50
Vhttps://img.ricardostatic.ch/t_265/pl/1041991278/0/1
p51
tp52
sV1040277816
p53
(Vhttps://www.ricardo.ch/de/a/teeset-1040277816/
p54
V//style-6a38.kxcdn.com/latest/lib/images/not-loaded.png
p55
tp56
sV843968212
p57
(Vhttps://www.ricardo.ch/de/a/3-chinesische-landschaften-843968212/
p58
V//style-6a38.kxcdn.com/latest/lib/images/not-loaded.png
p59
tp60
sV1041941614
p61
(Vhttps://www.ricardo.ch/de/a/originalbild-aus-bali.-1041941614/
p62
V//style-6a38.kxcdn.com/latest/lib/images/not-loaded.png
p63
tp64
sV1018668768
p65
(Vhttps://www.ricardo.ch/de/a/3-kataloge-sotheby's-chinesische-kunst-1018668768/
p66
V//style-6a38.kxcdn.com/latest/lib/images/not-loaded.png
p67
tp68
sV1005477316
p69
(Vhttps://www.ricardo.ch/de/a/snuff-bottle-keramik-erotika-china-_-1005477316/
p70
V//style-6a38.kxcdn.com/latest/lib/images/not-loaded.png
p71
tp72
sV997522812
p73
(Vhttps://www.ricardo.ch/de/a/bild-chinesische-pfauen-997522812/
p74
V//style-6a38.kxcdn.com/latest/lib/images/not-loaded.png
p75
tp76
sV1041944634
p77
(Vhttps://www.ricardo.ch/de/a/kaemmem-holz-1041944634/
p78
Vhttps://img.ricardostatic.ch/t_265/pl/1041944634/0/1
p79
tp80
sV1039420362
p81
(Vhttps://www.ricardo.ch/de/a/posten-china-allerelei-1039420362/
p82
V//style-6a38.kxcdn.com/latest/lib/images/not-loaded.png
p83
tp84
sV1018787008
p85
(Vhttps://www.ricardo.ch/de/a/sitzende-guanjin-holzfigur.-china-1018787008/
p86
V//style-6a38.kxcdn.com/latest/lib/images/not-loaded.png
p87
tp88
sV1041704020
p89
(Vhttps://www.ricardo.ch/de/a/bild-china-1041704020/
p90
V//style-6a38.kxcdn.com/latest/lib/images/not-loaded.png
p91
tp92
sV1010988738
p93
(Vhttps://www.ricardo.ch/de/a/bodenvase-china-handbemalt-porzellan-1010988738/
p94
V//style-6a38.kxcdn.com/latest/lib/images/not-loaded.png
p95
tp96
sV1041691140
p97
(Vhttps://www.ricardo.ch/de/a/bild-china-1041691140/
p98
V//style-6a38.kxcdn.com/latest/lib/images/not-loaded.png
p99
tp100
sV978579336
p101
(Vhttps://www.ricardo.ch/de/a/alte-tintenstein-china-120-150-jahre-alt-978579336/
p102
V//style-6a38.kxcdn.com/latest/lib/images/not-loaded.png
p103
tp104
sV1036924728
p105
(Vhttps://www.ricardo.ch/de/a/alte-chinesische-truhe-1036924728/
p106
V//style-6a38.kxcdn.com/latest/lib/images/not-loaded.png
p107
tp108
sV1029996456
p109
(Vhttps://www.ricardo.ch/de/a/qilin-chinesisches-paar-drachenpferd-1029996456/
p110
V//style-6a38.kxcdn.com/latest/lib/images/not-loaded.png
p111
tp112
sV1041702524
p113
(Vhttps://www.ricardo.ch/de/a/tao-steine-chinesische-meditation-1041702524/
p114
Vhttps://img.ricardostatic.ch/t_265/pl/1041702524/0/1
p115
tp116
sV989618274
p117
(Vhttps://www.ricardo.ch/de/a/grosser-anhaenger-stein-handgraviert-_-989618274/
p118
V//style-6a38.kxcdn.com/latest/lib/images/not-loaded.png
p119
tp120
sV1030906906
p121
(Vhttps://www.ricardo.ch/de/a/rikscha-salz-und-pfeffer-miniatur-silber-1030906906/
p122
V//style-6a38.kxcdn.com/latest/lib/images/not-loaded.png
p123
tp124
sV1002836946
p125
(Vhttps://www.ricardo.ch/de/a/vintage-cloisonne-fingerhut-set-china-1002836946/
p126
V//style-6a38.kxcdn.com/latest/lib/images/not-loaded.png
p127
tp128
sV1042593812
p129
(Vhttps://www.ricardo.ch/de/a/antikes-gefaess-blau-weiss-1042593812/
p130
V//style-6a38.kxcdn.com/latest/lib/images/not-loaded.png
p131
tp132
sV1042915766
p133
(Vhttps://www.ricardo.ch/de/a/antique-china-wase-1042915766/
p134
V//style-6a38.kxcdn.com/latest/lib/images/not-loaded.png
p135
tp136
sV1029629538
p137
(Vhttps://www.ricardo.ch/de/a/anhaenger-krieger-stein-nephrit-china-_-1029629538/
p138
V//style-6a38.kxcdn.com/latest/lib/images/not-loaded.png
p139
tp140
sV972691580
p141
(Vhttps://www.ricardo.ch/de/a/psyche-eingelegtes-perlmutt-china-soldes-972691580/
p142
V//style-6a38.kxcdn.com/latest/lib/images/not-loaded.png
p143
tp144
sV969239204
p145
(Vhttps://www.ricardo.ch/de/a/antike-chinesische-tischlaternen-969239204/
p146
V//style-6a38.kxcdn.com/latest/lib/images/not-loaded.png
p147
tp148
sV1041653352
p149
(Vhttps://www.ricardo.ch/de/a/chinese-naturel-jade-figure-buddha-1041653352/
p150
V//style-6a38.kxcdn.com/latest/lib/images/not-loaded.png
p151
tp152
sV1013436988
p153
(Vhttps://www.ricardo.ch/de/a/tisch-mit-speckstein-japan-china-1013436988/
p154
V//style-6a38.kxcdn.com/latest/lib/images/not-loaded.png
p155
tp156
sV1034859650
p157
(Vhttps://www.ricardo.ch/de/a/china-vase-1034859650/
p158
V//style-6a38.kxcdn.com/latest/lib/images/not-loaded.png
p159
tp160
sV1035878116
p161
(Vhttps://www.ricardo.ch/de/a/porzellan-vase-china-1035878116/
p162
V//style-6a38.kxcdn.com/latest/lib/images/not-loaded.png
p163
tp164
sV1017321110
p165
(Vhttps://www.ricardo.ch/de/a/3-anhaenger-stein-buddha-china-_-1017321110/
p166
V//style-6a38.kxcdn.com/latest/lib/images/not-loaded.png
p167
tp168
sV1037162800
p169
(Vhttps://www.ricardo.ch/de/a/asiatischer-akt-1037162800/
p170
V//style-6a38.kxcdn.com/latest/lib/images/not-loaded.png
p171
tp172
sV1043028592
p173
(Vhttps://www.ricardo.ch/de/a/china-perlmutt-bild-1043028592/
p174
V//style-6a38.kxcdn.com/latest/lib/images/not-loaded.png
p175
tp176
sV1031512486
p177
(Vhttps://www.ricardo.ch/de/a/pferd-und-jockey-royal-worcester-1031512486/
p178
V//style-6a38.kxcdn.com/latest/lib/images/not-loaded.png
p179
tp180
sV1042498124
p181
(Vhttps://www.ricardo.ch/de/a/chinesische-blechdose-1042498124/
p182
Vhttps://img.ricardostatic.ch/t_265/pl/1042498124/0/1
p183
tp184
sV1020876118
p185
(Vhttps://www.ricardo.ch/de/a/chinesisches-dekor-kaestchen-bemalt-1020876118/
p186
V//style-6a38.kxcdn.com/latest/lib/images/not-loaded.png
p187
tp188
sV1035560896
p189
(Vhttps://www.ricardo.ch/de/a/boules-qi-gong-1035560896/
p190
V//style-6a38.kxcdn.com/latest/lib/images/not-loaded.png
p191
tp192
sV1031207302
p193
(Vhttps://www.ricardo.ch/de/a/vase-aynsley-bone-china-cottage-garden-1031207302/
p194
V//style-6a38.kxcdn.com/latest/lib/images/not-loaded.png
p195
tp196
sV1025755332
p197
(Vhttps://www.ricardo.ch/de/a/china-propaganda.-mao.-1965.-1025755332/
p198
V//style-6a38.kxcdn.com/latest/lib/images/not-loaded.png
p199
tp200
sV1030742482
p201
(Vhttps://www.ricardo.ch/de/a/blech-lastwagen-1030742482/
p202
V//style-6a38.kxcdn.com/latest/lib/images/not-loaded.png
p203
tp204
sV1034472498
p205
(Vhttps://www.ricardo.ch/de/a/china-dose-alte-geschnitzt-knochen-1034472498/
p206
V//style-6a38.kxcdn.com/latest/lib/images/not-loaded.png
p207
tp208
sV1030134326
p209
(Vhttps://www.ricardo.ch/de/a/antikes-tinkturflacon-aus-china-raritaet!-1030134326/
p210
V//style-6a38.kxcdn.com/latest/lib/images/not-loaded.png
p211
tp212
sV946857440
p213
(Vhttps://www.ricardo.ch/de/a/armreif-miao-silber-mit-elefantenfamilie-946857440/
p214
V//style-6a38.kxcdn.com/latest/lib/images/not-loaded.png
p215
tp216
sV1035166030
p217
(Vhttps://www.ricardo.ch/de/a/bundbemalite-tonfigur-von-einen-pferd-1035166030/
p218
V//style-6a38.kxcdn.com/latest/lib/images/not-loaded.png
p219
tp220
sV1041695326
p221
(Vhttps://www.ricardo.ch/de/a/chinesische-korkschnitzerei-in-schwarz-1041695326/
p222
V//style-6a38.kxcdn.com/latest/lib/images/not-loaded.png
p223
tp224
sV1035827820
p225
(Vhttps://www.ricardo.ch/de/a/celadon-teller-china-19.-jahrhundert-1035827820/
p226
V//style-6a38.kxcdn.com/latest/lib/images/not-loaded.png
p227
tp228
sV1027662780
p229
(Vhttps://www.ricardo.ch/de/a/kiste-mit-3-kaemmen-aus-lackiertem-holz-1027662780/
p230
V//style-6a38.kxcdn.com/latest/lib/images/not-loaded.png
p231
tp232
sV1020918780
p233
(Vhttps://www.ricardo.ch/de/a/kunst-porzellan-schale-china-schale-1020918780/
p234
V//style-6a38.kxcdn.com/latest/lib/images/not-loaded.png
p235
tp236
sV1042127556
p237
(Vhttps://www.ricardo.ch/de/a/asiatika-wunderschoene-korkschnitzerei-1042127556/
p238
V//style-6a38.kxcdn.com/latest/lib/images/not-loaded.png
p239
tp240
sV1042978498
p241
(Vhttps://www.ricardo.ch/de/a/vase-cloisonne-1042978498/
p242
V//style-6a38.kxcdn.com/latest/lib/images/not-loaded.png
p243
tp244
sV1042912116
p245
(Vhttps://www.ricardo.ch/de/a/antique-china-porcellan-1042912116/
p246
V//style-6a38.kxcdn.com/latest/lib/images/not-loaded.png
p247
tp248
sV1000888122
p249
(Vhttps://www.ricardo.ch/de/a/chinesische-hofdame-am-pavillion-19.-jh-1000888122/
p250
V//style-6a38.kxcdn.com/latest/lib/images/not-loaded.png
p251
tp252
sV1000885720
p253
(Vhttps://www.ricardo.ch/de/a/chinesische-malerei.-goettin-der-gerech-1000885720/
p254
V//style-6a38.kxcdn.com/latest/lib/images/not-loaded.png
p255
tp256
sV973109294
p257
(Vhttps://www.ricardo.ch/de/a/alte-cloisonne-emaille-box-china-973109294/
p258
V//style-6a38.kxcdn.com/latest/lib/images/not-loaded.png
p259
tp260
sV1007620876
p261
(Vhttps://www.ricardo.ch/de/a/seidenwand-die-2-pandas-im-kasten-haengt-1007620876/
p262
V//style-6a38.kxcdn.com/latest/lib/images/not-loaded.png
p263
tp264
sV1033468900
p265
(Vhttps://www.ricardo.ch/de/a/china-schmuckkasten-herrlich-10-kg!-1033468900/
p266
V//style-6a38.kxcdn.com/latest/lib/images/not-loaded.png
p267
tp268
sV973109092
p269
(Vhttps://www.ricardo.ch/de/a/alte-cloisonne-emaille-box-china-973109092/
p270
V//style-6a38.kxcdn.com/latest/lib/images/not-loaded.png
p271
tp272
sV1042538296
p273
(Vhttps://www.ricardo.ch/de/a/broadway-6-beilageteller-blue-foley-bone-1042538296/
p274
V//style-6a38.kxcdn.com/latest/lib/images/not-loaded.png
p275
tp276
sV1042169648
p277
(Vhttps://www.ricardo.ch/de/a/antic-chinese-wedding-cabinet-1042169648/
p278
V//style-6a38.kxcdn.com/latest/lib/images/not-loaded.png
p279
tp280
sV1003832652
p281
(Vhttps://www.ricardo.ch/de/a/porzellan-schale-china-pearl-1003832652/
p282
V//style-6a38.kxcdn.com/latest/lib/images/not-loaded.png
p283
tp284
sV974979146
p285
(Vhttps://www.ricardo.ch/de/a/wunderschoene-chinesische-bild-974979146/
p286
Vhttps://img.ricardostatic.ch/t_265/pl/974979146/2/1
p287
tp288
sV1043272890
p289
(Vhttps://www.ricardo.ch/de/a/alte-chinesische-vase-1043272890/
p290
V//style-6a38.kxcdn.com/latest/lib/images/not-loaded.png
p291
tp292
sV1026394420
p293
(Vhttps://www.ricardo.ch/de/a/(22)-china-grillendose-verziert-1026394420/
p294
V//style-6a38.kxcdn.com/latest/lib/images/not-loaded.png
p295
tp296
sV993309222
p297
(Vhttps://www.ricardo.ch/de/a/qing-dynastie-panel-rock-seide-993309222/
p298
Vhttps://img.ricardostatic.ch/t_265/pl/993309222/0/1
p299
tp300
sV1027951778
p301
(Vhttps://www.ricardo.ch/de/a/chinesische-schriftzeichen-1027951778/
p302
Vhttps://img.ricardostatic.ch/t_265/pl/1027951778/0/1
p303
tp304
sV1037115982
p305
(Vhttps://www.ricardo.ch/de/a/kuenstlerporzelan-china-1037115982/
p306
V//style-6a38.kxcdn.com/latest/lib/images/not-loaded.png
p307
tp308
sV993085124
p309
(Vhttps://www.ricardo.ch/de/a/ente-pekingente-chinaente-2-stk-20-jh-993085124/
p310
V//style-6a38.kxcdn.com/latest/lib/images/not-loaded.png
p311
tp312
sV1041741846
p313
(Vhttps://www.ricardo.ch/de/a/kopf-china-antik-1041741846/
p314
V//style-6a38.kxcdn.com/latest/lib/images/not-loaded.png
p315
tp316
sV987280492
p317
(Vhttps://www.ricardo.ch/de/a/gefaess-asiatica-china-19.-20.-jhrd.-987280492/
p318
V//style-6a38.kxcdn.com/latest/lib/images/not-loaded.png
p319
tp320
sV1029242664
p321
(Vhttps://www.ricardo.ch/de/a/vase-china-schnitzlack-gluecksdrachen-1029242664/
p322
V//style-6a38.kxcdn.com/latest/lib/images/not-loaded.png
p323
tp324
sV1043204144
p325
(Vhttps://www.ricardo.ch/de/a/china-schrank-cm-ad-044-weiss-102x48cm-1043204144/
p326
Vhttps://img.ricardostatic.ch/t_265/pl/1043204144/0/1
p327
tp328
sV1028411334
p329
(Vhttps://www.ricardo.ch/de/a/vase-hexagone-chine-porzellan-vase-china-1028411334/
p330
V//style-6a38.kxcdn.com/latest/lib/images/not-loaded.png
p331
tp332
sV974542562
p333
(Vhttps://www.ricardo.ch/de/a/snuff-bottle-fuer-schnupftabak-china_-974542562/
p334
V//style-6a38.kxcdn.com/latest/lib/images/not-loaded.png
p335
tp336
sV1042155128
p337
(Vhttps://www.ricardo.ch/de/a/antike-teecups-porzellan-blau-weiss-1042155128/
p338
V//style-6a38.kxcdn.com/latest/lib/images/not-loaded.png
p339
tp340
sV1027972948
p341
(Vhttps://www.ricardo.ch/de/a/chinesische-porzellan-vase-vergoldet-1027972948/
p342
V//style-6a38.kxcdn.com/latest/lib/images/not-loaded.png
p343
tp344
sV777899056
p345
(Vhttps://www.ricardo.ch/de/a/11-meisterhafte-farbzeichnungen-china-777899056/
p346
V//style-6a38.kxcdn.com/latest/lib/images/not-loaded.png
p347
tp348
sV1037974364
p349
(Vhttps://www.ricardo.ch/de/a/china-topf-1037974364/
p350
V//style-6a38.kxcdn.com/latest/lib/images/not-loaded.png
p351
tp352
sV1042339126
p353
(Vhttps://www.ricardo.ch/de/a/asia-goetzenfigur-geschnitzt-vergoldet-1042339126/
p354
V//style-6a38.kxcdn.com/latest/lib/images/not-loaded.png
p355
tp356
sV1030668906
p357
(Vhttps://www.ricardo.ch/de/a/grosse-vase-china-antik-1030668906/
p358
V//style-6a38.kxcdn.com/latest/lib/images/not-loaded.png
p359
tp360
sV1010546506
p361
(Vhttps://www.ricardo.ch/de/a/china-altes-tang-pferd-terrakotta-glasie-1010546506/
p362
V//style-6a38.kxcdn.com/latest/lib/images/not-loaded.png
p363
tp364
sV1042397192
p365
(Vhttps://www.ricardo.ch/de/a/feuerzeughuellen-cloisonne-3-stk.-1042397192/
p366
V//style-6a38.kxcdn.com/latest/lib/images/not-loaded.png
p367
tp368
sV1011955934
p369
(Vhttps://www.ricardo.ch/de/a/heiliges-figur-china-1011955934/
p370
V//style-6a38.kxcdn.com/latest/lib/images/not-loaded.png
p371
tp372
sV1043105444
p373
(Vhttps://www.ricardo.ch/de/a/ancien-jade-chinois-1043105444/
p374
Vhttps://img.ricardostatic.ch/t_265/pl/1043105444/0/1
p375
tp376
sV1042300780
p377
(Vhttps://www.ricardo.ch/de/a/china-teppich-1042300780/
p378
V//style-6a38.kxcdn.com/latest/lib/images/not-loaded.png
p379
tp380
sV1041304296
p381
(Vhttps://www.ricardo.ch/de/a/vogel-in-kupfer-draht-china-1041304296/
p382
V//style-6a38.kxcdn.com/latest/lib/images/not-loaded.png
p383
tp384
sV1042501832
p385
(Vhttps://www.ricardo.ch/de/a/briefoeffner-china-1042501832/
p386
Vhttps://img.ricardostatic.ch/t_265/pl/1042501832/1/1
p387
tp388
sV1036161728
p389
(Vhttps://www.ricardo.ch/de/a/chinesische-seiden-milieu-deckeli-1036161728/
p390
V//style-6a38.kxcdn.com/latest/lib/images/not-loaded.png
p391
tp392
sV1040508088
p393
(Vhttps://www.ricardo.ch/de/a/chinesischer-hochzeitsschrank-1040508088/
p394
V//style-6a38.kxcdn.com/latest/lib/images/not-loaded.png
p395
tp396
sV886100564
p397
(Vhttps://www.ricardo.ch/de/a/antike-chinesische-beistelltische-(paar)-886100564/
p398
V//style-6a38.kxcdn.com/latest/lib/images/not-loaded.png
p399
tp400
sV973108852
p401
(Vhttps://www.ricardo.ch/de/a/alte-cloisonne-emaille-box-china-973108852/
p402
V//style-6a38.kxcdn.com/latest/lib/images/not-loaded.png
p403
tp404
sV1035582562
p405
(Vhttps://www.ricardo.ch/de/a/chinesischen-nashorn-in-stein-1-1035582562/
p406
V//style-6a38.kxcdn.com/latest/lib/images/not-loaded.png
p407
tp408
sV1034113626
p409
(Vhttps://www.ricardo.ch/de/a/2-sanyou-bilder-chin.-korkenschnitzerei-1034113626/
p410
V//style-6a38.kxcdn.com/latest/lib/images/not-loaded.png
p411
tp412
sV1028314788
p413
(Vhttps://www.ricardo.ch/de/a/hausgott-china-hartholz-sehr-alt-1028314788/
p414
V//style-6a38.kxcdn.com/latest/lib/images/not-loaded.png
p415
tp416
sV1035395126
p417
(Vhttps://www.ricardo.ch/de/a/chinesischer-teller-1035395126/
p418
V//style-6a38.kxcdn.com/latest/lib/images/not-loaded.png
p419
tp420
sV997124398
p421
(Vhttps://www.ricardo.ch/de/a/xxx-antike-alte-chinesische-teedose-xxx-997124398/
p422
V//style-6a38.kxcdn.com/latest/lib/images/not-loaded.png
p423
tp424
sV1037814356
p425
(Vhttps://www.ricardo.ch/de/a/top-schnitzerei-eines-stehenden-buddha-1037814356/
p426
V//style-6a38.kxcdn.com/latest/lib/images/not-loaded.png
p427
tp428
sV1039607684
p429
(Vhttps://www.ricardo.ch/de/a/grosse-chinesische-vase-mit-blumendekor-1039607684/
p430
V//style-6a38.kxcdn.com/latest/lib/images/not-loaded.png
p431
tp432
sV1038177116
p433
(Vhttps://www.ricardo.ch/de/a/fotos-oder-drucke-china-1038177116/
p434
V//style-6a38.kxcdn.com/latest/lib/images/not-loaded.png
p435
tp436
sV1032890994
p437
(Vhttps://www.ricardo.ch/de/a/chinesisches-grosses-seidenbild-vogel-1032890994/
p438
V//style-6a38.kxcdn.com/latest/lib/images/not-loaded.png
p439
tp440
sV1037750738
p441
(Vhttps://www.ricardo.ch/de/a/china-rolle-tiger-1037750738/
p442
V//style-6a38.kxcdn.com/latest/lib/images/not-loaded.png
p443
tp444
sV1041257236
p445
(Vhttps://www.ricardo.ch/de/a/korkschnitzerei-1041257236/
p446
V//style-6a38.kxcdn.com/latest/lib/images/not-loaded.png
p447
tp448
sV1032721458
p449
(Vhttps://www.ricardo.ch/de/a/chinesische-terrakottasoldaten-teekrug-1032721458/
p450
V//style-6a38.kxcdn.com/latest/lib/images/not-loaded.png
p451
tp452
sV1007610948
p453
(Vhttps://www.ricardo.ch/de/a/2-gemaelde-relief-krieger-china-1007610948/
p454
V//style-6a38.kxcdn.com/latest/lib/images/not-loaded.png
p455
tp456
sV1022412664
p457
(Vhttps://www.ricardo.ch/de/a/asia-china-moebel-1022412664/
p458
V//style-6a38.kxcdn.com/latest/lib/images/not-loaded.png
p459
tp460
sV999562650
p461
(Vhttps://www.ricardo.ch/de/a/rotlackvase-china-antik-h-ca.26cm-999562650/
p462
V//style-6a38.kxcdn.com/latest/lib/images/not-loaded.png
p463
tp464
sV1041304072
p465
(Vhttps://www.ricardo.ch/de/a/pfau-in-kupfer-draht-china-1041304072/
p466
V//style-6a38.kxcdn.com/latest/lib/images/not-loaded.png
p467
tp468
sV1007305298
p469
(Vhttps://www.ricardo.ch/de/a/vintage-china-tuerkis-brosche-1007305298/
p470
Vhttps://img.ricardostatic.ch/t_265/pl/1007305298/3/1
p471
tp472
sV1013328382
p473
(Vhttps://www.ricardo.ch/de/a/chinesisches-tapetenbuechlein-1013328382/
p474
V//style-6a38.kxcdn.com/latest/lib/images/not-loaded.png
p475
tp476
sV1037345306
p477
(Vhttps://www.ricardo.ch/de/a/dekorative-cloisonne-ei-mit-sockel-1037345306/
p478
V//style-6a38.kxcdn.com/latest/lib/images/not-loaded.png
p479
tp480
sV1004732058
p481
(Vhttps://www.ricardo.ch/de/a/xxxlxxlxl-1004732058/
p482
V//style-6a38.kxcdn.com/latest/lib/images/not-loaded.png
p483
tp484
sV994892726
p485
(Vhttps://www.ricardo.ch/de/a/schoene-china-stein-box-cricket-994892726/
p486
V//style-6a38.kxcdn.com/latest/lib/images/not-loaded.png
p487
tp488
sV997485110
p489
(Vhttps://www.ricardo.ch/de/a/antiker-schrank-china-qing-dynastie-rot-997485110/
p490
V//style-6a38.kxcdn.com/latest/lib/images/not-loaded.png
p491
tp492
sV1000884142
p493
(Vhttps://www.ricardo.ch/de/a/feines-chinesisches-seidenbild.-in-einem-1000884142/
p494
V//style-6a38.kxcdn.com/latest/lib/images/not-loaded.png
p495
tp496
sV1035178980
p497
(Vhttps://www.ricardo.ch/de/a/dreifabige-tonfigure-von-pferd-48cm-1035178980/
p498
V//style-6a38.kxcdn.com/latest/lib/images/not-loaded.png
p499
tp500
sV1038570378
p501
(Vhttps://www.ricardo.ch/de/a/antike-chinesische-opiumlampe-1038570378/
p502
Vhttps://img.ricardostatic.ch/t_265/pl/1038570378/1/1
p503
tp504
sV1041464404
p505
(Vhttps://www.ricardo.ch/de/a/grosse-kangxi-teller-1041464404/
p506
V//style-6a38.kxcdn.com/latest/lib/images/not-loaded.png
p507
tp508
sV1042527698
p509
(Vhttps://www.ricardo.ch/de/a/3-porzellan-schuesseln-china-1042527698/
p510
V//style-6a38.kxcdn.com/latest/lib/images/not-loaded.png
p511
tp512
sV1041741650
p513
(Vhttps://www.ricardo.ch/de/a/2-kl.-lack-dosen-koi-blumen-asiatisch-1041741650/
p514
V//style-6a38.kxcdn.com/latest/lib/images/not-loaded.png
p515
tp516
sV1042362744
p517
(Vhttps://www.ricardo.ch/de/a/li-hunde-china-19.-jahrhundert-1042362744/
p518
Vhttps://img.ricardostatic.ch/t_265/pl/1042362744/1/1
p519
tp520
sV1006679106
p521
(Vhttps://www.ricardo.ch/de/a/vintage-china-tuerkis-925er-silber-1006679106/
p522
V//style-6a38.kxcdn.com/latest/lib/images/not-loaded.png
p523
tp524
sV1042914052
p525
(Vhttps://www.ricardo.ch/de/a/china-wase-1042914052/
p526
V//style-6a38.kxcdn.com/latest/lib/images/not-loaded.png
p527
tp528
sV978577286
p529
(Vhttps://www.ricardo.ch/de/a/alte-tintenstein-china-120-150-jahre-alt-978577286/
p530
V//style-6a38.kxcdn.com/latest/lib/images/not-loaded.png
p531
tp532
sV1041983468
p533
(Vhttps://www.ricardo.ch/de/a/chinesisches-aquarell-vergoldeter-rahmen-1041983468/
p534
Vhttps://img.ricardostatic.ch/t_265/pl/1041983468/1/1
p535
tp536
sV762159526
p537
(Vhttps://www.ricardo.ch/de/a/hasio-shusien-chinesische-kinderfreuden-762159526/
p538
V//style-6a38.kxcdn.com/latest/lib/images/not-loaded.png
p539
tp540
sV1015118298
p541
(Vhttps://www.ricardo.ch/de/a/email-deckeldose-china-1015118298/
p542
V//style-6a38.kxcdn.com/latest/lib/images/not-loaded.png
p543
tp544
sV1041974394
p545
(Vhttps://www.ricardo.ch/de/a/deckeli-wandbehang-100-kinder-china-1041974394/
p546
V//style-6a38.kxcdn.com/latest/lib/images/not-loaded.png
p547
tp548
sV1042581752
p549
(Vhttps://www.ricardo.ch/de/a/korkschnitzerei-hinter-glas-1042581752/
p550
V//style-6a38.kxcdn.com/latest/lib/images/not-loaded.png
p551
tp552
sV989265002
p553
(Vhttps://www.ricardo.ch/de/a/chinesisches-porzgefaess-70'jahre-989265002/
p554
V//style-6a38.kxcdn.com/latest/lib/images/not-loaded.png
p555
tp556
sV1041254438
p557
(Vhttps://www.ricardo.ch/de/a/chinesisches-sideboard-antik-1041254438/
p558
V//style-6a38.kxcdn.com/latest/lib/images/not-loaded.png
p559
tp560
sV1036760136
p561
(Vhttps://www.ricardo.ch/de/a/kalligraphie-vase-china-1036760136/
p562
V//style-6a38.kxcdn.com/latest/lib/images/not-loaded.png
p563
tp564
sV1035981396
p565
(Vhttps://www.ricardo.ch/de/a/seltene-briefmarken-china-1035981396/
p566
V//style-6a38.kxcdn.com/latest/lib/images/not-loaded.png
p567
tp568
sV1042552816
p569
(Vhttps://www.ricardo.ch/de/a/china-20.-jahrhundert-1042552816/
p570
V//style-6a38.kxcdn.com/latest/lib/images/not-loaded.png
p571
tp572
sV1040978208
p573
(Vhttps://www.ricardo.ch/de/a/seidenmalerei-fan-china-vintage-1040978208/
p574
V//style-6a38.kxcdn.com/latest/lib/images/not-loaded.png
p575
tp576
sV1034842558
p577
(Vhttps://www.ricardo.ch/de/a/wunderschoene-china-vase-1034842558/
p578
V//style-6a38.kxcdn.com/latest/lib/images/not-loaded.png
p579
tp580
sV1026962090
p581
(Vhttps://www.ricardo.ch/de/a/chinesische-schale-aus-massivem-silber-1026962090/
p582
V//style-6a38.kxcdn.com/latest/lib/images/not-loaded.png
p583
tp584
sV1014066378
p585
(Vhttps://www.ricardo.ch/de/a/snuff-bottle-gepresster-bernstein-china_-1014066378/
p586
V//style-6a38.kxcdn.com/latest/lib/images/not-loaded.png
p587
tp588
sV1042132140
p589
(Vhttps://www.ricardo.ch/de/a/antikes-emaildoeschen-wohl-china-(l6)-1042132140/
p590
V//style-6a38.kxcdn.com/latest/lib/images/not-loaded.png
p591
tp592
sV1031577872
p593
(Vhttps://www.ricardo.ch/de/a/original-cloisonne-vase-aus-china-1031577872/
p594
V//style-6a38.kxcdn.com/latest/lib/images/not-loaded.png
p595
tp596
sV987411938
p597
(Vhttps://www.ricardo.ch/de/a/china-japan-1899-987411938/
p598
V//style-6a38.kxcdn.com/latest/lib/images/not-loaded.png
p599
tp600
sV1015977996
p601
(Vhttps://www.ricardo.ch/de/a/2-kataloge-christie's-china-1015977996/
p602
V//style-6a38.kxcdn.com/latest/lib/images/not-loaded.png
p603
tp604
sV1032402142
p605
(Vhttps://www.ricardo.ch/de/a/jade-anhaenger-aus-china-weiss-1032402142/
p606
V//style-6a38.kxcdn.com/latest/lib/images/not-loaded.png
p607
tp608
sV1019299892
p609
(Vhttps://www.ricardo.ch/de/a/cloisonneanhaenger-tibetsilber-rot-zirkon-1019299892/
p610
V//style-6a38.kxcdn.com/latest/lib/images/not-loaded.png
p611
tp612
sV1018668152
p613
(Vhttps://www.ricardo.ch/de/a/3-kataloge-christie's-chinesische-kunst-1018668152/
p614
V//style-6a38.kxcdn.com/latest/lib/images/not-loaded.png
p615
tp616
sV1035151484
p617
(Vhttps://www.ricardo.ch/de/a/wachtier-fabelwesen-aus-mythologie-32cm-1035151484/
p618
Vhttps://img.ricardostatic.ch/t_265/pl/1035151484/5/1
p619
tp620
sV950511772
p621
(Vhttps://www.ricardo.ch/de/a/sideboard-china-xinjiang_aktion-950511772/
p622
V//style-6a38.kxcdn.com/latest/lib/images/not-loaded.png
p623
tp624
sV1034471558
p625
(Vhttps://www.ricardo.ch/de/a/chinesische-gefaess-xuande-marke-(-17jh.)-1034471558/
p626
Vhttps://img.ricardostatic.ch/t_265/pl/1034471558/0/1
p627
tp628
sV1040269802
p629
(Vhttps://www.ricardo.ch/de/a/chinesische-vase-1040269802/
p630
Vhttps://img.ricardostatic.ch/t_265/pl/1040269802/0/1
p631
tp632
sV1007220682
p633
(Vhttps://www.ricardo.ch/de/a/porzellan-vase-china-1007220682/
p634
V//style-6a38.kxcdn.com/latest/lib/images/not-loaded.png
p635
tp636
sV1031997300
p637
(Vhttps://www.ricardo.ch/de/a/(22p)-anhaenger-obsidian-schafe-ziegen-1031997300/
p638
V//style-6a38.kxcdn.com/latest/lib/images/not-loaded.png
p639
tp640
sV1026975112
p641
(Vhttps://www.ricardo.ch/de/a/34-disney-figuren.-gemaess-bilder-1026975112/
p642
V//style-6a38.kxcdn.com/latest/lib/images/not-loaded.png
p643
tp644
sV1027876584
p645
(Vhttps://www.ricardo.ch/de/a/bronce-gefaess-china-antik-1027876584/
p646
V//style-6a38.kxcdn.com/latest/lib/images/not-loaded.png
p647
tp648
sV1042780790
p649
(Vhttps://www.ricardo.ch/de/a/tischglocke-cloisonnne-1042780790/
p650
V//style-6a38.kxcdn.com/latest/lib/images/not-loaded.png
p651
tp652
sV978497010
p653
(Vhttps://www.ricardo.ch/de/a/chinesisches-in-stein-geritztes-bild-978497010/
p654
V//style-6a38.kxcdn.com/latest/lib/images/not-loaded.png
p655
tp656
sV1043030504
p657
(Vhttps://www.ricardo.ch/de/a/china-perlmutt-bild-1043030504/
p658
V//style-6a38.kxcdn.com/latest/lib/images/not-loaded.png
p659
tp660
sV1010464290
p661
(Vhttps://www.ricardo.ch/de/a/kind-kopfschmuck-stamm-bai-yunnan-china-1010464290/
p662
V//style-6a38.kxcdn.com/latest/lib/images/not-loaded.png
p663
tp664
sV1020882050
p665
(Vhttps://www.ricardo.ch/de/a/chinesische-symbol-kette-aus-ebenholz-1020882050/
p666
V//style-6a38.kxcdn.com/latest/lib/images/not-loaded.png
p667
tp668
sV993016582
p669
(Vhttps://www.ricardo.ch/de/a/3-chinesische-speiseteller-famille-rose-993016582/
p670
V//style-6a38.kxcdn.com/latest/lib/images/not-loaded.png
p671
tp672
sV1033151650
p673
(Vhttps://www.ricardo.ch/de/a/uralter-tintenstein-china-ende-19.-1033151650/
p674
V//style-6a38.kxcdn.com/latest/lib/images/not-loaded.png
p675
tp676
sV1007288394
p677
(Vhttps://www.ricardo.ch/de/a/ethno-kette-china-fragmente-1007288394/
p678
Vhttps://img.ricardostatic.ch/t_265/pl/1007288394/3/1
p679
tp680
sV1041461262
p681
(Vhttps://www.ricardo.ch/de/a/bild-chinesisches-blumenmotiv-1041461262/
p682
V//style-6a38.kxcdn.com/latest/lib/images/not-loaded.png
p683
tp684
sV1034307230
p685
(Vhttps://www.ricardo.ch/de/a/china-asien-grosse-65-cm-vase-1034307230/
p686
V//style-6a38.kxcdn.com/latest/lib/images/not-loaded.png
p687
tp688
sV1042716286
p689
(Vhttps://www.ricardo.ch/de/a/antique-china-porcellan-1042716286/
p690
Vhttps://img.ricardostatic.ch/t_265/pl/1042716286/0/1
p691
tp692
sV999755152
p693
(Vhttps://www.ricardo.ch/de/a/plateau-peint-main-999755152/
p694
V//style-6a38.kxcdn.com/latest/lib/images/not-loaded.png
p695
tp696
sV1042822346
p697
(Vhttps://www.ricardo.ch/de/a/antik-china-teppich-197x140cm-1042822346/
p698
V//style-6a38.kxcdn.com/latest/lib/images/not-loaded.png
p699
tp700
sV1034473098
p701
(Vhttps://www.ricardo.ch/de/a/altes-gefaess-mit-schmucksteinen-china-1034473098/
p702
V//style-6a38.kxcdn.com/latest/lib/images/not-loaded.png
p703
tp704
sV1037769218
p705
(Vhttps://www.ricardo.ch/de/a/gluecksbringer-alter-1037769218/
p706
Vhttps://img.ricardostatic.ch/t_265/pl/1037769218/0/1
p707
tp708
sV1028153246
p709
(Vhttps://www.ricardo.ch/de/a/chinesische-snuff-bottle-um-1900-1028153246/
p710
V//style-6a38.kxcdn.com/latest/lib/images/not-loaded.png
p711
tp712
sV1020891360
p713
(Vhttps://www.ricardo.ch/de/a/uralte-china-vase-1020891360/
p714
V//style-6a38.kxcdn.com/latest/lib/images/not-loaded.png
p715
tp716
sV1026953398
p717
(Vhttps://www.ricardo.ch/de/a/kinderbuddha-aus-marmor-ausdrucksstark-1026953398/
p718
V//style-6a38.kxcdn.com/latest/lib/images/not-loaded.png
p719
tp720
sV1040925872
p721
(Vhttps://www.ricardo.ch/de/a/chinesische-malerei-auf-seidenpapier.-1040925872/
p722
V//style-6a38.kxcdn.com/latest/lib/images/not-loaded.png
p723
tp724
sV1033459026
p725
(Vhttps://www.ricardo.ch/de/a/chinese-jade-talisman-amulette-1033459026/
p726
V//style-6a38.kxcdn.com/latest/lib/images/not-loaded.png
p727
tp728
sV986267140
p729
(Vhttps://www.ricardo.ch/de/a/rotlack-schnitzlack-dose-antik-china-986267140/
p730
V//style-6a38.kxcdn.com/latest/lib/images/not-loaded.png
p731
tp732
sV1037984210
p733
(Vhttps://www.ricardo.ch/de/a/chinesische-vase-29-cm-handbemalt-1037984210/
p734
V//style-6a38.kxcdn.com/latest/lib/images/not-loaded.png
p735
tp736
sV1036755110
p737
(Vhttps://www.ricardo.ch/de/a/email-vase-china-1036755110/
p738
V//style-6a38.kxcdn.com/latest/lib/images/not-loaded.png
p739
tp740
sV1028122390
p741
(Vhttps://www.ricardo.ch/de/a/alte-vase-im-chinesischen-stil-1028122390/
p742
V//style-6a38.kxcdn.com/latest/lib/images/not-loaded.png
p743
tp744
sV773141812
p745
(Vhttps://www.ricardo.ch/de/a/magic-lantern-slide-china-chine-ymca-773141812/
p746
V//style-6a38.kxcdn.com/latest/lib/images/not-loaded.png
p747
tp748
sV1042991866
p749
(Vhttps://www.ricardo.ch/de/a/guanyin-blanc-de-chine-china-20jh.-1042991866/
p750
V//style-6a38.kxcdn.com/latest/lib/images/not-loaded.png
p751
tp752
sV1025754746
p753
(Vhttps://www.ricardo.ch/de/a/china-propaganda.-gemaelde.-1025754746/
p754
V//style-6a38.kxcdn.com/latest/lib/images/not-loaded.png
p755
tp756
sV1041738192
p757
(Vhttps://www.ricardo.ch/de/a/alter-zierteller-china-20th-cent.-1041738192/
p758
V//style-6a38.kxcdn.com/latest/lib/images/not-loaded.png
p759
tp760
sV1023907530
p761
(Vhttps://www.ricardo.ch/de/a/japan-china-alte-kiste-mit-intarsien-1023907530/
p762
V//style-6a38.kxcdn.com/latest/lib/images/not-loaded.png
p763
tp764
sV967802734
p765
(Vhttps://www.ricardo.ch/de/a/gebetsstein-967802734/
p766
V//style-6a38.kxcdn.com/latest/lib/images/not-loaded.png
p767
tp768
sV966948952
p769
(Vhttps://www.ricardo.ch/de/a/porzellan-teller-china-966948952/
p770
V//style-6a38.kxcdn.com/latest/lib/images/not-loaded.png
p771
tp772
sV1017898608
p773
(Vhttps://www.ricardo.ch/de/a/jade-anhaenger-2-fischeherz-beige-1017898608/
p774
V//style-6a38.kxcdn.com/latest/lib/images/not-loaded.png
p775
tp776
sV1030914180
p777
(Vhttps://www.ricardo.ch/de/a/pferd-wagen-miniatur-silber-aethiopien-1030914180/
p778
V//style-6a38.kxcdn.com/latest/lib/images/not-loaded.png
p779
tp780
sV1040833452
p781
(Vhttps://www.ricardo.ch/de/a/china-sung-(1000-jahre-alt)-2-oellaempchen-1040833452/
p782
V//style-6a38.kxcdn.com/latest/lib/images/not-loaded.png
p783
tp784
sV1032721460
p785
(Vhttps://www.ricardo.ch/de/a/keramik-teeset-mit-cloisonne-kordelkette-1032721460/
p786
V//style-6a38.kxcdn.com/latest/lib/images/not-loaded.png
p787
tp788
sV1001466832
p789
(Vhttps://www.ricardo.ch/de/a/chinesischer-hund-1001466832/
p790
V//style-6a38.kxcdn.com/latest/lib/images/not-loaded.png
p791
tp792
sV1032721468
p793
(Vhttps://www.ricardo.ch/de/a/chinesischer-messingkerzenhalter-3armig-1032721468/
p794
V//style-6a38.kxcdn.com/latest/lib/images/not-loaded.png
p795
tp796
sV959991558
p797
(Vhttps://www.ricardo.ch/de/a/china-schnitzerei-beinarbeit-schatulle-959991558/
p798
V//style-6a38.kxcdn.com/latest/lib/images/not-loaded.png
p799
tp800
sV1042764758
p801
(Vhttps://www.ricardo.ch/de/a/teedose-china-19th-1042764758/
p802
V//style-6a38.kxcdn.com/latest/lib/images/not-loaded.png
p803
tp804
sV1042966972
p805
(Vhttps://www.ricardo.ch/de/a/chinesischer-teekrug-porzellan-1042966972/
p806
V//style-6a38.kxcdn.com/latest/lib/images/not-loaded.png
p807
tp808
sV1030353998
p809
(Vhttps://www.ricardo.ch/de/a/antiker-chinesischer-altartisch-1030353998/
p810
V//style-6a38.kxcdn.com/latest/lib/images/not-loaded.png
p811
tp812
sV1041647788
p813
(Vhttps://www.ricardo.ch/de/a/chinese-naturel-jade-figure-buddha-1041647788/
p814
V//style-6a38.kxcdn.com/latest/lib/images/not-loaded.png
p815
tp816
sV972688904
p817
(Vhttps://www.ricardo.ch/de/a/lackiertes-hoelzernes-schmuckkaestch-china-972688904/
p818
V//style-6a38.kxcdn.com/latest/lib/images/not-loaded.png
p819
tp820
sV946708384
p821
(Vhttps://www.ricardo.ch/de/a/china-flachschale-mit-2-phoenixen-946708384/
p822
V//style-6a38.kxcdn.com/latest/lib/images/not-loaded.png
p823
tp824
sV1040030448
p825
(Vhttps://www.ricardo.ch/de/a/1988-grosse-china-post-sack-100x60cm-1040030448/
p826
V//style-6a38.kxcdn.com/latest/lib/images/not-loaded.png
p827
tp828
sV1016967536
p829
(Vhttps://www.ricardo.ch/de/a/alte-chinesische-truhe-1016967536/
p830
V//style-6a38.kxcdn.com/latest/lib/images/not-loaded.png
p831
tp832
sV1042520756
p833
(Vhttps://www.ricardo.ch/de/a/china-gluecksbringer-1042520756/
p834
V//style-6a38.kxcdn.com/latest/lib/images/not-loaded.png
p835
tp836
sV932244204
p837
(Vhttps://www.ricardo.ch/de/a/grosse-vase-china-mit-pfauen-h-ca.-62cm-932244204/
p838
V//style-6a38.kxcdn.com/latest/lib/images/not-loaded.png
p839
tp840
sV1000885058
p841
(Vhttps://www.ricardo.ch/de/a/chinesischer-schwertkaempfer-i-signiert-1000885058/
p842
V//style-6a38.kxcdn.com/latest/lib/images/not-loaded.png
p843
tp844
sV1025755826
p845
(Vhttps://www.ricardo.ch/de/a/china-propaganda.-mao.-1967.-1025755826/
p846
V//style-6a38.kxcdn.com/latest/lib/images/not-loaded.png
p847
tp848
sV1017321090
p849
(Vhttps://www.ricardo.ch/de/a/edler-anhaenger-unendlichkeit-jade-china_-1017321090/
p850
V//style-6a38.kxcdn.com/latest/lib/images/not-loaded.png
p851
tp852
sV1042526376
p853
(Vhttps://www.ricardo.ch/de/a/porzellan-vase-china-1042526376/
p854
V//style-6a38.kxcdn.com/latest/lib/images/not-loaded.png
p855
tp856
sV976586022
p857
(Vhttps://www.ricardo.ch/de/a/antik-cloisonne-vase-ca.1900-32-cm-976586022/
p858
V//style-6a38.kxcdn.com/latest/lib/images/not-loaded.png
p859
tp860
sV1033245986
p861
(Vhttps://www.ricardo.ch/de/a/2-schoene-chinesische-vasen-1033245986/
p862
V//style-6a38.kxcdn.com/latest/lib/images/not-loaded.png
p863
tp864
sV1012887296
p865
(Vhttps://www.ricardo.ch/de/a/altes-snuff-bottle-jade-china-_-1012887296/
p866
V//style-6a38.kxcdn.com/latest/lib/images/not-loaded.png
p867
tp868
sV1011746640
p869
(Vhttps://www.ricardo.ch/de/a/sehr-schoene-e.....-beinfigur-1011746640/
p870
V//style-6a38.kxcdn.com/latest/lib/images/not-loaded.png
p871
tp872
sV1041060684
p873
(Vhttps://www.ricardo.ch/de/a/chinesische-snuff-bottle-1041060684/
p874
V//style-6a38.kxcdn.com/latest/lib/images/not-loaded.png
p875
tp876
sV1030011054
p877
(Vhttps://www.ricardo.ch/de/a/alter-becher-aus-china-jade-1030011054/
p878
Vhttps://img.ricardostatic.ch/t_265/pl/1030011054/2/1
p879
tp880
sV1041347748
p881
(Vhttps://www.ricardo.ch/de/a/paire-de-fruits-sculptes-asie-sur-socle-1041347748/
p882
V//style-6a38.kxcdn.com/latest/lib/images/not-loaded.png
p883
tp884
sV1031474974
p885
(Vhttps://www.ricardo.ch/de/a/hutongs-beijing-architektur-peking-china-1031474974/
p886
V//style-6a38.kxcdn.com/latest/lib/images/not-loaded.png
p887
tp888
sV1029266678
p889
(Vhttps://www.ricardo.ch/de/a/terracottafiguren-1029266678/
p890
V//style-6a38.kxcdn.com/latest/lib/images/not-loaded.png
p891
tp892
sV1015978180
p893
(Vhttps://www.ricardo.ch/de/a/3-kataloge-sotheby's-china-1015978180/
p894
V//style-6a38.kxcdn.com/latest/lib/images/not-loaded.png
p895
tp896
sV1022948402
p897
(Vhttps://www.ricardo.ch/de/a/china-lampe-1022948402/
p898
V//style-6a38.kxcdn.com/latest/lib/images/not-loaded.png
p899
tp900
sV1039265284
p901
(Vhttps://www.ricardo.ch/de/a/etagere-angle-chinoise-dragons-ancienne-1039265284/
p902
V//style-6a38.kxcdn.com/latest/lib/images/not-loaded.png
p903
tp904
sV1033158050
p905
(Vhttps://www.ricardo.ch/de/a/uralter-tintenstein-china-ende-19.-1033158050/
p906
Vhttps://img.ricardostatic.ch/t_265/pl/1033158050/1/1
p907
tp908
sV1043286108
p909
(Vhttps://www.ricardo.ch/de/a/china-porzellan-1043286108/
p910
V//style-6a38.kxcdn.com/latest/lib/images/not-loaded.png
p911
tp912
sV1041733352
p913
(Vhttps://www.ricardo.ch/de/a/antikes-chinesisches-buegeleisen-pfanne-1041733352/
p914
Vhttps://img.ricardostatic.ch/t_265/pl/1041733352/0/1
p915
tp916
sV1027766508
p917
(Vhttps://www.ricardo.ch/de/a/porzellan-vase-china-1027766508/
p918
V//style-6a38.kxcdn.com/latest/lib/images/not-loaded.png
p919
tp920
sV1000885276
p921
(Vhttps://www.ricardo.ch/de/a/chinesischer-schwertkaempfer-ii-signiert-1000885276/
p922
V//style-6a38.kxcdn.com/latest/lib/images/not-loaded.png
p923
tp924
sV1023352774
p925
(Vhttps://www.ricardo.ch/de/a/antikes-chinesisches-gemaelde-1023352774/
p926
V//style-6a38.kxcdn.com/latest/lib/images/not-loaded.png
p927
tp928
sV1001901722
p929
(Vhttps://www.ricardo.ch/de/a/fine-bone-china-dose-deckel-1001901722/
p930
V//style-6a38.kxcdn.com/latest/lib/images/not-loaded.png
p931
tp932
sV1007026792
p933
(Vhttps://www.ricardo.ch/de/a/seidenbild-china-handstickerei-1007026792/
p934
V//style-6a38.kxcdn.com/latest/lib/images/not-loaded.png
p935
tp936
sV1040432198
p937
(Vhttps://www.ricardo.ch/de/a/antiker-chinesischer-tisch-1040432198/
p938
V//style-6a38.kxcdn.com/latest/lib/images/not-loaded.png
p939
tp940
sV1009994324
p941
(Vhttps://www.ricardo.ch/de/a/168-cm.-sehr-grosse-chinesische-vase-1009994324/
p942
Vhttps://img.ricardostatic.ch/t_265/pl/1009994324/0/1
p943
tp944
sV1042875354
p945
(Vhttps://www.ricardo.ch/de/a/chinesische-lackdose-1042875354/
p946
V//style-6a38.kxcdn.com/latest/lib/images/not-loaded.png
p947
tp948
sV1019185090
p949
(Vhttps://www.ricardo.ch/de/a/chinesische-perlmutt-schnitzerei-1019185090/
p950
V//style-6a38.kxcdn.com/latest/lib/images/not-loaded.png
p951
tp952
sV1038978414
p953
(Vhttps://www.ricardo.ch/de/a/alte-chinesische-stickerei-3-st.-1038978414/
p954
V//style-6a38.kxcdn.com/latest/lib/images/not-loaded.png
p955
tp956
sV1023005012
p957
(Vhttps://www.ricardo.ch/de/a/antiker-bambuskorb-china-um-1900-1023005012/
p958
V//style-6a38.kxcdn.com/latest/lib/images/not-loaded.png
p959
tp960
sV1032721472
p961
(Vhttps://www.ricardo.ch/de/a/chinesische-figur-aus-polyresin-1032721472/
p962
V//style-6a38.kxcdn.com/latest/lib/images/not-loaded.png
p963
tp964
sV996427776
p965
(Vhttps://www.ricardo.ch/de/a/1-paar-cloisonne-vasen-996427776/
p966
V//style-6a38.kxcdn.com/latest/lib/images/not-loaded.png
p967
tp968
sV1031824300
p969
(Vhttps://www.ricardo.ch/de/a/handgemaltes-chinesisches-bild-1031824300/
p970
V//style-6a38.kxcdn.com/latest/lib/images/not-loaded.png
p971
tp972
sV1041892842
p973
(Vhttps://www.ricardo.ch/de/a/antikes-chinesisches-buegeleisen-pfanne-1041892842/
p974
V//style-6a38.kxcdn.com/latest/lib/images/not-loaded.png
p975
tp976
sV1035865548
p977
(Vhttps://www.ricardo.ch/de/a/peinture-chinoise-par-lin-tsiu-sen-no.-7-1035865548/
p978
V//style-6a38.kxcdn.com/latest/lib/images/not-loaded.png
p979
tp980
sV1041055908
p981
(Vhttps://www.ricardo.ch/de/a/chinesische-kalligraphien-1041055908/
p982
V//style-6a38.kxcdn.com/latest/lib/images/not-loaded.png
p983
tp984
sV1013886612
p985
(Vhttps://www.ricardo.ch/de/a/2-snuffbottles-pferde-glasmalerei-1013886612/
p986
Vhttps://img.ricardostatic.ch/t_265/pl/1013886612/0/1
p987
tp988
sV1035865544
p989
(Vhttps://www.ricardo.ch/de/a/peinture-chinoise-par-lin-tsiu-sen-no.-2-1035865544/
p990
V//style-6a38.kxcdn.com/latest/lib/images/not-loaded.png
p991
tp992
sV1020498068
p993
(Vhttps://www.ricardo.ch/de/a/set-china-fuer-tee-1020498068/
p994
V//style-6a38.kxcdn.com/latest/lib/images/not-loaded.png
p995
tp996
sV1035865540
p997
(Vhttps://www.ricardo.ch/de/a/peinture-chinoise-par-lin-tsiu-sen-no.-3-1035865540/
p998
V//style-6a38.kxcdn.com/latest/lib/images/not-loaded.png
p999
tp1000
sV1036150198
p1001
(Vhttps://www.ricardo.ch/de/a/alte-chinesische-figur-1036150198/
p1002
V//style-6a38.kxcdn.com/latest/lib/images/not-loaded.png
p1003
tp1004
sV1035865542
p1005
(Vhttps://www.ricardo.ch/de/a/peinture-chinoise-par-lin-tsiu-sen-no.-1-1035865542/
p1006
V//style-6a38.kxcdn.com/latest/lib/images/not-loaded.png
p1007
tp1008
sV1010235496
p1009
(Vhttps://www.ricardo.ch/de/a/erotische-bilderrolle-aus-china-1010235496/
p1010
V//style-6a38.kxcdn.com/latest/lib/images/not-loaded.png
p1011
tp1012
sV1025754318
p1013
(Vhttps://www.ricardo.ch/de/a/china-propaganda.-gemaelde.-konditorei.-1025754318/
p1014
V//style-6a38.kxcdn.com/latest/lib/images/not-loaded.png
p1015
tp1016
sV996577182
p1017
(Vhttps://www.ricardo.ch/de/a/porzellan-tassen-china-boxer-zeit-996577182/
p1018
V//style-6a38.kxcdn.com/latest/lib/images/not-loaded.png
p1019
tp1020
sV994815822
p1021
(Vhttps://www.ricardo.ch/de/a/(22)-das-alte-china-994815822/
p1022
V//style-6a38.kxcdn.com/latest/lib/images/not-loaded.png
p1023
tp1024
sV1034080102
p1025
(Vhttps://www.ricardo.ch/de/a/rotlackdose-aus-china-1034080102/
p1026
V//style-6a38.kxcdn.com/latest/lib/images/not-loaded.png
p1027
tp1028
sV1036593264
p1029
(Vhttps://www.ricardo.ch/de/a/chinesische-vase-blau-und-weiss-1036593264/
p1030
V//style-6a38.kxcdn.com/latest/lib/images/not-loaded.png
p1031
tp1032
sV1011030344
p1033
(Vhttps://www.ricardo.ch/de/a/schoene-alte-china-porzellanplatte-1011030344/
p1034
V//style-6a38.kxcdn.com/latest/lib/images/not-loaded.png
p1035
tp1036
sV1039969232
p1037
(Vhttps://www.ricardo.ch/de/a/peinture-chinoise-par-lin-tsiu-sen-no.-5-1039969232/
p1038
V//style-6a38.kxcdn.com/latest/lib/images/not-loaded.png
p1039
tp1040
sV1041748078
p1041
(Vhttps://www.ricardo.ch/de/a/skulptur-china-antik-1041748078/
p1042
V//style-6a38.kxcdn.com/latest/lib/images/not-loaded.png
p1043
tp1044
sV1030095034
p1045
(Vhttps://www.ricardo.ch/de/a/chinesische-weinkiste-1030095034/
p1046
V//style-6a38.kxcdn.com/latest/lib/images/not-loaded.png
p1047
tp1048
sV1042543928
p1049
(Vhttps://www.ricardo.ch/de/a/antique-china-becher-1042543928/
p1050
V//style-6a38.kxcdn.com/latest/lib/images/not-loaded.png
p1051
tp1052
sV1000887740
p1053
(Vhttps://www.ricardo.ch/de/a/chinesische-hofdame-am-ruhebett-19.-jh-1000887740/
p1054
V//style-6a38.kxcdn.com/latest/lib/images/not-loaded.png
p1055
tp1056
sV980642522
p1057
(Vhttps://www.ricardo.ch/de/a/rotlack-teller-antik-china-ca.1900-980642522/
p1058
V//style-6a38.kxcdn.com/latest/lib/images/not-loaded.png
p1059
tp1060
sV941961066
p1061
(Vhttps://www.ricardo.ch/de/a/alter-chinesischer-holzmodel-941961066/
p1062
V//style-6a38.kxcdn.com/latest/lib/images/not-loaded.png
p1063
tp1064
sV1033303372
p1065
(Vhttps://www.ricardo.ch/de/a/asien-china-orient-2-tischlampen-1033303372/
p1066
V//style-6a38.kxcdn.com/latest/lib/images/not-loaded.png
p1067
tp1068
sV975193800
p1069
(Vhttps://www.ricardo.ch/de/a/paar-alte-blau-chinesische-vasen-975193800/
p1070
V//style-6a38.kxcdn.com/latest/lib/images/not-loaded.png
p1071
tp1072
sV1019305252
p1073
(Vhttps://www.ricardo.ch/de/a/burmajadeit.china-1019305252/
p1074
V//style-6a38.kxcdn.com/latest/lib/images/not-loaded.png
p1075
tp1076
sV1032208596
p1077
(Vhttps://www.ricardo.ch/de/a/signierte-chinesische-snuffbottle-1032208596/
p1078
V//style-6a38.kxcdn.com/latest/lib/images/not-loaded.png
p1079
tp1080
sV1024861780
p1081
(Vhttps://www.ricardo.ch/de/a/anhaenger-mystisches-tier-stein-china-_-1024861780/
p1082
V//style-6a38.kxcdn.com/latest/lib/images/not-loaded.png
p1083
tp1084
sV1009806864
p1085
(Vhttps://www.ricardo.ch/de/a/5-kruege-viktoria-china-div.-groessen-1009806864/
p1086
V//style-6a38.kxcdn.com/latest/lib/images/not-loaded.png
p1087
tp1088
sV1030906542
p1089
(Vhttps://www.ricardo.ch/de/a/rikscha-miniatur-silber-china-1030906542/
p1090
V//style-6a38.kxcdn.com/latest/lib/images/not-loaded.png
p1091
tp1092
sV1032209228
p1093
(Vhttps://www.ricardo.ch/de/a/wunderschoene-chinesische-snuffbottle-1032209228/
p1094
V//style-6a38.kxcdn.com/latest/lib/images/not-loaded.png
p1095
tp1096
sV999608410
p1097
(Vhttps://www.ricardo.ch/de/a/china-vorratsgefaess-aus-pappmaschee-999608410/
p1098
V//style-6a38.kxcdn.com/latest/lib/images/not-loaded.png
p1099
tp1100
sV992843754
p1101
(Vhttps://www.ricardo.ch/de/a/fein-geschnitztes-holzrelief.-992843754/
p1102
V//style-6a38.kxcdn.com/latest/lib/images/not-loaded.png
p1103
tp1104
sV978497930
p1105
(Vhttps://www.ricardo.ch/de/a/chinesisches-in-stein-geritztes-bild-978497930/
p1106
V//style-6a38.kxcdn.com/latest/lib/images/not-loaded.png
p1107
tp1108
sV973860170
p1109
(Vhttps://www.ricardo.ch/de/a/sideboard-china-xinjiang-vintage-1920-973860170/
p1110
V//style-6a38.kxcdn.com/latest/lib/images/not-loaded.png
p1111
tp1112
sV1039214998
p1113
(Vhttps://www.ricardo.ch/de/a/schale-porzellan-blaumalerei-blau-weiss-1039214998/
p1114
V//style-6a38.kxcdn.com/latest/lib/images/not-loaded.png
p1115
tp1116
sV1038523636
p1117
(Vhttps://www.ricardo.ch/de/a/boite-pour-batons-d'encens-en-bambou-1038523636/
p1118
V//style-6a38.kxcdn.com/latest/lib/images/not-loaded.png
p1119
tp1120
sV952133594
p1121
(Vhttps://www.ricardo.ch/de/a/antike-chinesische-chi-ho-vitrine-952133594/
p1122
V//style-6a38.kxcdn.com/latest/lib/images/not-loaded.png
p1123
tp1124
sV1030098952
p1125
(Vhttps://www.ricardo.ch/de/a/wunderschoenes-antikes-china-moebel-1030098952/
p1126
Vhttps://img.ricardostatic.ch/t_265/pl/1030098952/1/1
p1127
tp1128
sV1041465358
p1129
(Vhttps://www.ricardo.ch/de/a/dynastie-tang-figur-1041465358/
p1130
V//style-6a38.kxcdn.com/latest/lib/images/not-loaded.png
p1131
tp1132
sV897617470
p1133
(Vhttps://www.ricardo.ch/de/a/antike-chinesische-grillen-dose-897617470/
p1134
V//style-6a38.kxcdn.com/latest/lib/images/not-loaded.png
p1135
tp1136
sV1029245974
p1137
(Vhttps://www.ricardo.ch/de/a/chinesische-kinderfreuden-1946-1029245974/
p1138
V//style-6a38.kxcdn.com/latest/lib/images/not-loaded.png
p1139
tp1140
sV1003462076
p1141
(Vhttps://www.ricardo.ch/de/a/china-japan-auf-seide-gerahmt-1003462076/
p1142
V//style-6a38.kxcdn.com/latest/lib/images/not-loaded.png
p1143
tp1144
sV1036176532
p1145
(Vhttps://www.ricardo.ch/de/a/reiskorn-china-porzellan-tee-gedeck-1036176532/
p1146
V//style-6a38.kxcdn.com/latest/lib/images/not-loaded.png
p1147
tp1148
sV1038340518
p1149
(Vhttps://www.ricardo.ch/de/a/4-bilder-lackiert-china-1038340518/
p1150
V//style-6a38.kxcdn.com/latest/lib/images/not-loaded.png
p1151
tp1152
sV1042508076
p1153
(Vhttps://www.ricardo.ch/de/a/altes-asia-teekaennchen-braun-yixing-1042508076/
p1154
Vhttps://img.ricardostatic.ch/t_265/pl/1042508076/0/1
p1155
tp1156
sV1035340510
p1157
(Vhttps://www.ricardo.ch/de/a/the-greatbbronze-age-of-china-wen-fong-1035340510/
p1158
V//style-6a38.kxcdn.com/latest/lib/images/not-loaded.png
p1159
tp1160
sV1035879106
p1161
(Vhttps://www.ricardo.ch/de/a/porzellan-vase-china-1035879106/
p1162
V//style-6a38.kxcdn.com/latest/lib/images/not-loaded.png
p1163
tp1164
sV996665720
p1165
(Vhttps://www.ricardo.ch/de/a/xs-antique-tea-pot-teekanne-996665720/
p1166
V//style-6a38.kxcdn.com/latest/lib/images/not-loaded.png
p1167
tp1168
sV1041255394
p1169
(Vhttps://www.ricardo.ch/de/a/echt-chinesisches-teeservice-1041255394/
p1170
V//style-6a38.kxcdn.com/latest/lib/images/not-loaded.png
p1171
tp1172
sV1034358218
p1173
(Vhttps://www.ricardo.ch/de/a/alter-ingwer-topf-china-blau-weiss-1034358218/
p1174
V//style-6a38.kxcdn.com/latest/lib/images/not-loaded.png
p1175
tp1176
sV1022935406
p1177
(Vhttps://www.ricardo.ch/de/a/skulptur-jade-china-geschnitzt-1022935406/
p1178
V//style-6a38.kxcdn.com/latest/lib/images/not-loaded.png
p1179
tp1180
sV978721736
p1181
(Vhttps://www.ricardo.ch/de/a/china-tibet-rundes-box-mit-gold-bemalt-978721736/
p1182
V//style-6a38.kxcdn.com/latest/lib/images/not-loaded.png
p1183
tp1184
sV1022935404
p1185
(Vhttps://www.ricardo.ch/de/a/schatulle-china-antik-shabby-1022935404/
p1186
V//style-6a38.kxcdn.com/latest/lib/images/not-loaded.png
p1187
tp1188
sV993648900
p1189
(Vhttps://www.ricardo.ch/de/a/edler-armreif-jade-china-_-993648900/
p1190
V//style-6a38.kxcdn.com/latest/lib/images/not-loaded.png
p1191
tp1192
sV1030446118
p1193
(Vhttps://www.ricardo.ch/de/a/jade-anhaenger-1-ring-1-scheibe-hellgruen-1030446118/
p1194
V//style-6a38.kxcdn.com/latest/lib/images/not-loaded.png
p1195
tp1196
sV1042805346
p1197
(Vhttps://www.ricardo.ch/de/a/antike-chinesische-truhe-1042805346/
p1198
V//style-6a38.kxcdn.com/latest/lib/images/not-loaded.png
p1199
tp1200
sV1037814376
p1201
(Vhttps://www.ricardo.ch/de/a/kalligraphie-kit-chinesischer-japaner-1037814376/
p1202
V//style-6a38.kxcdn.com/latest/lib/images/not-loaded.png
p1203
tp1204
sV1042168712
p1205
(Vhttps://www.ricardo.ch/de/a/melon-jar-deckel-dose-aus-porzellan-1042168712/
p1206
V//style-6a38.kxcdn.com/latest/lib/images/not-loaded.png
p1207
tp1208
sV1004694174
p1209
(Vhttps://www.ricardo.ch/de/a/mf-763-cabrio-aus-den-60-70er-china-1004694174/
p1210
V//style-6a38.kxcdn.com/latest/lib/images/not-loaded.png
p1211
tp1212
sV1022432700
p1213
(Vhttps://www.ricardo.ch/de/a/alte-chinesische-relief-1022432700/
p1214
V//style-6a38.kxcdn.com/latest/lib/images/not-loaded.png
p1215
tp1216
sV1031823476
p1217
(Vhttps://www.ricardo.ch/de/a/handgemaltes-chinesisches-bild-1031823476/
p1218
V//style-6a38.kxcdn.com/latest/lib/images/not-loaded.png
p1219
tp1220
sV1029839664
p1221
(Vhttps://www.ricardo.ch/de/a/gong-shuming-bi-'palace-comb'-1029839664/
p1222
V//style-6a38.kxcdn.com/latest/lib/images/not-loaded.png
p1223
tp1224
sV1018717582
p1225
(Vhttps://www.ricardo.ch/de/a/thangka-vajrakilaya-druck-dorje-phurba-1018717582/
p1226
V//style-6a38.kxcdn.com/latest/lib/images/not-loaded.png
p1227
tp1228
sV1030089494
p1229
(Vhttps://www.ricardo.ch/de/a/kamee-gemme-biedermeier-1030089494/
p1230
V//style-6a38.kxcdn.com/latest/lib/images/not-loaded.png
p1231
tp1232
sV1020320554
p1233
(Vhttps://www.ricardo.ch/de/a/altes-chinesisches-porcellan-1020320554/
p1234
V//style-6a38.kxcdn.com/latest/lib/images/not-loaded.png
p1235
tp1236
sV1037345720
p1237
(Vhttps://www.ricardo.ch/de/a/dekorative-cloisonne-ei-mit-sockel-1037345720/
p1238
Vhttps://img.ricardostatic.ch/t_265/pl/1037345720/0/1
p1239
tp1240
sV1021383762
p1241
(Vhttps://www.ricardo.ch/de/a/praechtige-art-deco-brosche-aus-china-...-1021383762/
p1242
V//style-6a38.kxcdn.com/latest/lib/images/not-loaded.png
p1243
tp1244
sV968579568
p1245
(Vhttps://www.ricardo.ch/de/a/antikes-chinesisches-haengekaestchen-968579568/
p1246
Vhttps://img.ricardostatic.ch/t_265/pl/968579568/9/1
p1247
tp1248
sV1042358358
p1249
(Vhttps://www.ricardo.ch/de/a/chinesische-lackdose-1042358358/
p1250
V//style-6a38.kxcdn.com/latest/lib/images/not-loaded.png
p1251
tp1252
sV994406308
p1253
(Vhttps://www.ricardo.ch/de/a/grosse-fish-bowl-20.-jhdt.-994406308/
p1254
V//style-6a38.kxcdn.com/latest/lib/images/not-loaded.png
p1255
tp1256
sV1036044244
p1257
(Vhttps://www.ricardo.ch/de/a/baltic-butterscotch-halskette-bernstein-1036044244/
p1258
V//style-6a38.kxcdn.com/latest/lib/images/not-loaded.png
p1259
tp1260
sV1022912482
p1261
(Vhttps://www.ricardo.ch/de/a/2-luefter-thailand-1022912482/
p1262
V//style-6a38.kxcdn.com/latest/lib/images/not-loaded.png
p1263
tp1264
sV911805122
p1265
(Vhttps://www.ricardo.ch/de/a/chinesische-landschaftsmalerei-47x37-cm-911805122/
p1266
V//style-6a38.kxcdn.com/latest/lib/images/not-loaded.png
p1267
tp1268
sV1018052004
p1269
(Vhttps://www.ricardo.ch/de/a/raeuchergefaess-incense-bronze-drache-tibet-1018052004/
p1270
V//style-6a38.kxcdn.com/latest/lib/images/not-loaded.png
p1271
tp1272
sV915953168
p1273
(Vhttps://www.ricardo.ch/de/a/shan-shui-chinesische-landschaftsmalerei-915953168/
p1274
V//style-6a38.kxcdn.com/latest/lib/images/not-loaded.png
p1275
tp1276
sV1015977676
p1277
(Vhttps://www.ricardo.ch/de/a/2-kataloge-christie's-china-1015977676/
p1278
V//style-6a38.kxcdn.com/latest/lib/images/not-loaded.png
p1279
tp1280
sV949790478
p1281
(Vhttps://www.ricardo.ch/de/a/antiker-chinesischer-altar-original!-949790478/
p1282
V//style-6a38.kxcdn.com/latest/lib/images/not-loaded.png
p1283
tp1284
sV1041739348
p1285
(Vhttps://www.ricardo.ch/de/a/chinesisches-fusschaelchen-sehr-huebsch-1041739348/
p1286
V//style-6a38.kxcdn.com/latest/lib/images/not-loaded.png
p1287
tp1288
sV879629296
p1289
(Vhttps://www.ricardo.ch/de/a/chinesische-kinderfreuden-1946-879629296/
p1290
V//style-6a38.kxcdn.com/latest/lib/images/not-loaded.png
p1291
tp1292
sV1042139528
p1293
(Vhttps://www.ricardo.ch/de/a/grosse-cloisonne-vase-mit-holzsockel-1042139528/
p1294
V//style-6a38.kxcdn.com/latest/lib/images/not-loaded.png
p1295
tp1296
sV1025756734
p1297
(Vhttps://www.ricardo.ch/de/a/china-propaganda.-mao.-gemaelde.-1025756734/
p1298
V//style-6a38.kxcdn.com/latest/lib/images/not-loaded.png
p1299
tp1300
sV932491358
p1301
(Vhttps://www.ricardo.ch/de/a/antikes-china-photobuch-932491358/
p1302
V//style-6a38.kxcdn.com/latest/lib/images/not-loaded.png
p1303
tp1304
sV1029245366
p1305
(Vhttps://www.ricardo.ch/de/a/konfektschale-japan-gc-fine-china-1029245366/
p1306
V//style-6a38.kxcdn.com/latest/lib/images/not-loaded.png
p1307
tp1308
sV1035914370
p1309
(Vhttps://www.ricardo.ch/de/a/chinesische-kunstarbeit-deko-vergoldet-1035914370/
p1310
V//style-6a38.kxcdn.com/latest/lib/images/not-loaded.png
p1311
tp1312
sV978589820
p1313
(Vhttps://www.ricardo.ch/de/a/alte-tintenstein-china-120-150-jahre-alt-978589820/
p1314
V//style-6a38.kxcdn.com/latest/lib/images/not-loaded.png
p1315
tp1316
sV1041943712
p1317
(Vhttps://www.ricardo.ch/de/a/grosse-ueppige-chinesische-vase-1041943712/
p1318
Vhttps://img.ricardostatic.ch/t_265/pl/1041943712/2/1
p1319
tp1320
sV1026540306
p1321
(Vhttps://www.ricardo.ch/de/a/mason's-patent-ironstone-china-strafford-1026540306/
p1322
V//style-6a38.kxcdn.com/latest/lib/images/not-loaded.png
p1323
tp1324
sV1042731986
p1325
(Vhttps://www.ricardo.ch/de/a/tibet-amulette-en-bronze-1042731986/
p1326
V//style-6a38.kxcdn.com/latest/lib/images/not-loaded.png
p1327
tp1328
sV996126594
p1329
(Vhttps://www.ricardo.ch/de/a/chinesische-schmuckschatulle-mit-korksch-996126594/
p1330
Vhttps://img.ricardostatic.ch/t_265/pl/996126594/0/1
p1331
tp1332
sV955778098
p1333
(Vhttps://www.ricardo.ch/de/a/moebel-antik-china-shanxi-aktion-955778098/
p1334
V//style-6a38.kxcdn.com/latest/lib/images/not-loaded.png
p1335
tp1336
sV941391240
p1337
(Vhttps://www.ricardo.ch/de/a/armreif-miao-silber-mit-elefanten-941391240/
p1338
V//style-6a38.kxcdn.com/latest/lib/images/not-loaded.png
p1339
tp1340
sV1041022478
p1341
(Vhttps://www.ricardo.ch/de/a/antike-chinesische-jadepfeife-1041022478/
p1342
V//style-6a38.kxcdn.com/latest/lib/images/not-loaded.png
p1343
tp1344
sV1017219912
p1345
(Vhttps://www.ricardo.ch/de/a/alte-chinesische-steinabklatsche-1017219912/
p1346
V//style-6a38.kxcdn.com/latest/lib/images/not-loaded.png
p1347
tp1348
sV864859060
p1349
(Vhttps://www.ricardo.ch/de/a/alte-und-schwere-silberbrosche-864859060/
p1350
V//style-6a38.kxcdn.com/latest/lib/images/not-loaded.png
p1351
tp1352
sV971824152
p1353
(Vhttps://www.ricardo.ch/de/a/aelteres-weisses-jadeamulett-aus-china-971824152/
p1354
V//style-6a38.kxcdn.com/latest/lib/images/not-loaded.png
p1355
tp1356
sV826812998
p1357
(Vhttps://www.ricardo.ch/de/a/grosse-vase-china-yuean-dynastie-14.-jh.-826812998/
p1358
V//style-6a38.kxcdn.com/latest/lib/images/not-loaded.png
p1359
tp1360
sV1033481256
p1361
(Vhttps://www.ricardo.ch/de/a/chinese-jade-talisman-amulette-1033481256/
p1362
V//style-6a38.kxcdn.com/latest/lib/images/not-loaded.png
p1363
tp1364
sV928306240
p1365
(Vhttps://www.ricardo.ch/de/a/2stk.china-gefaess-drache-yoli-928306240/
p1366
V//style-6a38.kxcdn.com/latest/lib/images/not-loaded.png
p1367
tp1368
sV1010989054
p1369
(Vhttps://www.ricardo.ch/de/a/bodenvase-china-handbemalt-porzellan-1010989054/
p1370
V//style-6a38.kxcdn.com/latest/lib/images/not-loaded.png
p1371
tp1372
sV1033153414
p1373
(Vhttps://www.ricardo.ch/de/a/uralter-tintenstein-china-ende-19.-1033153414/
p1374
Vhttps://img.ricardostatic.ch/t_265/pl/1033153414/1/1
p1375
tp1376
sV1025757674
p1377
(Vhttps://www.ricardo.ch/de/a/china-zeichnung-blatt-1025757674/
p1378
V//style-6a38.kxcdn.com/latest/lib/images/not-loaded.png
p1379
tp1380
sV1042741366
p1381
(Vhttps://www.ricardo.ch/de/a/chinesischer-vogelkaefig-1042741366/
p1382
V//style-6a38.kxcdn.com/latest/lib/images/not-loaded.png
p1383
tp1384
sV1022064544
p1385
(Vhttps://www.ricardo.ch/de/a/antiker-bambus-korb-china-um-1900-1022064544/
p1386
V//style-6a38.kxcdn.com/latest/lib/images/not-loaded.png
p1387
tp1388
sV1040834744
p1389
(Vhttps://www.ricardo.ch/de/a/china-snuf-bottle-18.jh.-1040834744/
p1390
V//style-6a38.kxcdn.com/latest/lib/images/not-loaded.png
p1391
tp1392
sV1041097134
p1393
(Vhttps://www.ricardo.ch/de/a/china-tianhuang-shoushan-stein-stempel-1041097134/
p1394
V//style-6a38.kxcdn.com/latest/lib/images/not-loaded.png
p1395
tp1396
sV1022205460
p1397
(Vhttps://www.ricardo.ch/de/a/kalligraphie-kit-chinesischer-japaner-1022205460/
p1398
V//style-6a38.kxcdn.com/latest/lib/images/not-loaded.png
p1399
tp1400
sV1033871840
p1401
(Vhttps://www.ricardo.ch/de/a/antik-drchbrch-vese-handarbeit-china-1033871840/
p1402
V//style-6a38.kxcdn.com/latest/lib/images/not-loaded.png
p1403
tp1404
sV1009020136
p1405
(Vhttps://www.ricardo.ch/de/a/soja-sauce-schaelchen-china-1009020136/
p1406
Vhttps://img.ricardostatic.ch/t_265/pl/1009020136/0/1
p1407
tp1408
sV1009999050
p1409
(Vhttps://www.ricardo.ch/de/a/antiker-bambusarmreif-china-tuerkis-1009999050/
p1410
V//style-6a38.kxcdn.com/latest/lib/images/not-loaded.png
p1411
tp1412
sV923923546
p1413
(Vhttps://www.ricardo.ch/de/a/box-porzellan-china-vintage-soldes-923923546/
p1414
V//style-6a38.kxcdn.com/latest/lib/images/not-loaded.png
p1415
tp1416
sV1035969406
p1417
(Vhttps://www.ricardo.ch/de/a/alte-erotische-bilderrolle-china-japan-1035969406/
p1418
V//style-6a38.kxcdn.com/latest/lib/images/not-loaded.png
p1419
tp1420
sV973109478
p1421
(Vhttps://www.ricardo.ch/de/a/alte-cloisonne-emaille-box-china-973109478/
p1422
V//style-6a38.kxcdn.com/latest/lib/images/not-loaded.png
p1423
tp1424
sV978589560
p1425
(Vhttps://www.ricardo.ch/de/a/alte-tintenstein-china-120-150-jahre-alt-978589560/
p1426
V//style-6a38.kxcdn.com/latest/lib/images/not-loaded.png
p1427
tp1428
sV1042430824
p1429
(Vhttps://www.ricardo.ch/de/a/porzellan-bild-china-1042430824/
p1430
V//style-6a38.kxcdn.com/latest/lib/images/not-loaded.png
p1431
tp1432
sV1042568386
p1433
(Vhttps://www.ricardo.ch/de/a/chinesischer-gluecksgott-figur-1042568386/
p1434
V//style-6a38.kxcdn.com/latest/lib/images/not-loaded.png
p1435
tp1436
sV1030011006
p1437
(Vhttps://www.ricardo.ch/de/a/tonvase-drachen-china-1030011006/
p1438
V//style-6a38.kxcdn.com/latest/lib/images/not-loaded.png
p1439
tp1440
sV1042876008
p1441
(Vhttps://www.ricardo.ch/de/a/chinesisches-aquarell-suzhou-1042876008/
p1442
V//style-6a38.kxcdn.com/latest/lib/images/not-loaded.png
p1443
tp1444
sV1001523710
p1445
(Vhttps://www.ricardo.ch/de/a/porzellan-zuckerdose-dose-china-handgema-1001523710/
p1446
V//style-6a38.kxcdn.com/latest/lib/images/not-loaded.png
p1447
tp1448
sV978590104
p1449
(Vhttps://www.ricardo.ch/de/a/alte-tintenstein-china-120-150-jahre-alt-978590104/
p1450
V//style-6a38.kxcdn.com/latest/lib/images/not-loaded.png
p1451
tp1452
sV1000884698
p1453
(Vhttps://www.ricardo.ch/de/a/chinesisches-masken-vorlage-fuer-tattoos-1000884698/
p1454
V//style-6a38.kxcdn.com/latest/lib/images/not-loaded.png
p1455
tp1456
sV1015977824
p1457
(Vhttps://www.ricardo.ch/de/a/3-kataloge-sotheby's-china-1015977824/
p1458
V//style-6a38.kxcdn.com/latest/lib/images/not-loaded.png
p1459
tp1460
sV1042918550
p1461
(Vhttps://www.ricardo.ch/de/a/schmuckschatulle-perlmutteinlage-china-1042918550/
p1462
V//style-6a38.kxcdn.com/latest/lib/images/not-loaded.png
p1463
tp1464
sV989167392
p1465
(Vhttps://www.ricardo.ch/de/a/tintenstein-aus-china-989167392/
p1466
V//style-6a38.kxcdn.com/latest/lib/images/not-loaded.png
p1467
tp1468
sV1037814388
p1469
(Vhttps://www.ricardo.ch/de/a/kalligraphie-kit-chinesischer-japaner-1037814388/
p1470
Vhttps://img.ricardostatic.ch/t_265/pl/1037814388/0/1
p1471
tp1472
sV1042029758
p1473
(Vhttps://www.ricardo.ch/de/a/joli-bol-chine-1042029758/
p1474
V//style-6a38.kxcdn.com/latest/lib/images/not-loaded.png
p1475
tp1476
sV722743912
p1477
(Vhttps://www.ricardo.ch/de/a/antiker-chinesischer-ingwertopf-722743912/
p1478
V//style-6a38.kxcdn.com/latest/lib/images/not-loaded.png
p1479
tp1480
sV1018021152
p1481
(Vhttps://www.ricardo.ch/de/a/handschmeichler-gelbe-jade-china-_-1018021152/
p1482
Vhttps://img.ricardostatic.ch/t_265/pl/1018021152/0/1
p1483
tp1484
sV1018475320
p1485
(Vhttps://www.ricardo.ch/de/a/grosse-schale-china-20-jhdt.-1018475320/
p1486
V//style-6a38.kxcdn.com/latest/lib/images/not-loaded.png
p1487
tp1488
sV1040068406
p1489
(Vhttps://www.ricardo.ch/de/a/chinesischer-tisch-im-alten-stil-1040068406/
p1490
Vhttps://img.ricardostatic.ch/t_265/pl/1040068406/0/1
p1491
tp1492
sV1042501106
p1493
(Vhttps://www.ricardo.ch/de/a/teller-china-1042501106/
p1494
V//style-6a38.kxcdn.com/latest/lib/images/not-loaded.png
p1495
tp1496
sV1043090990
p1497
(Vhttps://www.ricardo.ch/de/a/broderie-chinoise-ancienne-1043090990/
p1498
V//style-6a38.kxcdn.com/latest/lib/images/not-loaded.png
p1499
tp1500
sV1040716514
p1501
(Vhttps://www.ricardo.ch/de/a/chinesische-box-gold-cloisonne-lack-1040716514/
p1502
V//style-6a38.kxcdn.com/latest/lib/images/not-loaded.png
p1503
tp1504
sV1043151146
p1505
(Vhttps://www.ricardo.ch/de/a/antike-kommode-aus-china-unikat-120-j.-1043151146/
p1506
V//style-6a38.kxcdn.com/latest/lib/images/not-loaded.png
p1507
tp1508
sV1010336416
p1509
(Vhttps://www.ricardo.ch/de/a/inkstone-jade-aus-china-1010336416/
p1510
V//style-6a38.kxcdn.com/latest/lib/images/not-loaded.png
p1511
tp1512
sV1023426326
p1513
(Vhttps://www.ricardo.ch/de/a/1973-poster-flying-horse-of-kansu-china-1023426326/
p1514
V//style-6a38.kxcdn.com/latest/lib/images/not-loaded.png
p1515
tp1516
sV1032683106
p1517
(Vhttps://www.ricardo.ch/de/a/chinesische-schuhe-fuer-lotusfuesse-15-cm-1032683106/
p1518
V//style-6a38.kxcdn.com/latest/lib/images/not-loaded.png
p1519
tp1520
sV1024229032
p1521
(Vhttps://www.ricardo.ch/de/a/chien-fu-en-porcelaine-bleu-1024229032/
p1522
V//style-6a38.kxcdn.com/latest/lib/images/not-loaded.png
p1523
tp1524
sV1010625998
p1525
(Vhttps://www.ricardo.ch/de/a/feingold-kaffe-mocca-service-saji-china-1010625998/
p1526
V//style-6a38.kxcdn.com/latest/lib/images/not-loaded.png
p1527
tp1528
sV1021082790
p1529
(Vhttps://www.ricardo.ch/de/a/kinderbuch-china-shufang-*-antik-1946-1021082790/
p1530
V//style-6a38.kxcdn.com/latest/lib/images/not-loaded.png
p1531
tp1532
sV1042564996
p1533
(Vhttps://www.ricardo.ch/de/a/chinesische-figur-gluecksgott-1042564996/
p1534
V//style-6a38.kxcdn.com/latest/lib/images/not-loaded.png
p1535
tp1536
sV1000695044
p1537
(Vhttps://www.ricardo.ch/de/a/5-chinesische-japanische-korkbilder-1000695044/
p1538
V//style-6a38.kxcdn.com/latest/lib/images/not-loaded.png
p1539
tp1540
sV1032212500
p1541
(Vhttps://www.ricardo.ch/de/a/chinesische-snuffbottle-1032212500/
p1542
V//style-6a38.kxcdn.com/latest/lib/images/not-loaded.png
p1543
tp1544
sV1024166682
p1545
(Vhttps://www.ricardo.ch/de/a/anhaenger-guan-yin-buddha-stein-china-_-1024166682/
p1546
V//style-6a38.kxcdn.com/latest/lib/images/not-loaded.png
p1547
tp1548
sV1041702344
p1549
(Vhttps://www.ricardo.ch/de/a/chinese-ancien-coin-1041702344/
p1550
V//style-6a38.kxcdn.com/latest/lib/images/not-loaded.png
p1551
tp1552
sV1020356568
p1553
(Vhttps://www.ricardo.ch/de/a/6-kataloge-chinesische-kunst-1020356568/
p1554
V//style-6a38.kxcdn.com/latest/lib/images/not-loaded.png
p1555
tp1556
sV1040904184
p1557
(Vhttps://www.ricardo.ch/de/a/chinesische-malerei-auf-seidenpapier.-1040904184/
p1558
V//style-6a38.kxcdn.com/latest/lib/images/not-loaded.png
p1559
tp1560
sV1038173670
p1561
(Vhttps://www.ricardo.ch/de/a/seltene-bronze-skulptur-raeuchergef.-katz-1038173670/
p1562
V//style-6a38.kxcdn.com/latest/lib/images/not-loaded.png
p1563
tp1564
sV1028122890
p1565
(Vhttps://www.ricardo.ch/de/a/perlmutt-asiatisch-chinesische-kunst-1028122890/
p1566
V//style-6a38.kxcdn.com/latest/lib/images/not-loaded.png
p1567
tp1568
sV1042032582
p1569
(Vhttps://www.ricardo.ch/de/a/pot-a-tabac-1042032582/
p1570
V//style-6a38.kxcdn.com/latest/lib/images/not-loaded.png
p1571
tp1572
sV891634428
p1573
(Vhttps://www.ricardo.ch/de/a/culture-scapes-china-891634428/
p1574
V//style-6a38.kxcdn.com/latest/lib/images/not-loaded.png
p1575
tp1576
sV1040452800
p1577
(Vhttps://www.ricardo.ch/de/a/grosse-perle-plate-en-os-grave-asie-1040452800/
p1578
V//style-6a38.kxcdn.com/latest/lib/images/not-loaded.png
p1579
tp1580
sV1030358968
p1581
(Vhttps://www.ricardo.ch/de/a/chinesische-kalligraphie-rollbild-1030358968/
p1582
Vhttps://img.ricardostatic.ch/t_265/pl/1030358968/0/1
p1583
tp1584
sV989177006
p1585
(Vhttps://www.ricardo.ch/de/a/alte-bildrolle-aus-china-gemarkt-989177006/
p1586
V//style-6a38.kxcdn.com/latest/lib/images/not-loaded.png
p1587
tp1588
sV1023801570
p1589
(Vhttps://www.ricardo.ch/de/a/bild-chinesische-landschaft-1023801570/
p1590
V//style-6a38.kxcdn.com/latest/lib/images/not-loaded.png
p1591
tp1592
sV1041923072
p1593
(Vhttps://www.ricardo.ch/de/a/table-basse-chinoise-ancienne-1041923072/
p1594
V//style-6a38.kxcdn.com/latest/lib/images/not-loaded.png
p1595
tp1596
sV1042160460
p1597
(Vhttps://www.ricardo.ch/de/a/gebrauchter-chinesische-abakus-rechner-1042160460/
p1598
V//style-6a38.kxcdn.com/latest/lib/images/not-loaded.png
p1599
tp1600
sV1042729420
p1601
(Vhttps://www.ricardo.ch/de/a/tibet-amulette-en-bronze-1042729420/
p1602
V//style-6a38.kxcdn.com/latest/lib/images/not-loaded.png
p1603
tp1604
sV1041648490
p1605
(Vhttps://www.ricardo.ch/de/a/chinese-naturel-jade-figure-buddha-1041648490/
p1606
V//style-6a38.kxcdn.com/latest/lib/images/not-loaded.png
p1607
tp1608
sV1033281330
p1609
(Vhttps://www.ricardo.ch/de/a/chinesische-drachenfinkli-1033281330/
p1610
Vhttps://img.ricardostatic.ch/t_265/pl/1033281330/0/1
p1611
tp1612
sV1039644626
p1613
(Vhttps://www.ricardo.ch/de/a/thangka-bild-tibet-topzustand-alt-1039644626/
p1614
Vhttps://img.ricardostatic.ch/t_265/pl/1039644626/2/1
p1615
tp1616
sV1041919994
p1617
(Vhttps://www.ricardo.ch/de/a/bauchgefuehl-frau-mann-koerper-tibet-40cm-1041919994/
p1618
V//style-6a38.kxcdn.com/latest/lib/images/not-loaded.png
p1619
tp1620
sV1007843002
p1621
(Vhttps://www.ricardo.ch/de/a/grosse-vase-china-1007843002/
p1622
V//style-6a38.kxcdn.com/latest/lib/images/not-loaded.png
p1623
tp1624
sV1040659132
p1625
(Vhttps://www.ricardo.ch/de/a/paravan-schwarz-lackiert-china-antik-1040659132/
p1626
V//style-6a38.kxcdn.com/latest/lib/images/not-loaded.png
p1627
tp1628
sV1034235850
p1629
(Vhttps://www.ricardo.ch/de/a/japan-oder-china-kleines-schaelchen-1034235850/
p1630
Vhttps://img.ricardostatic.ch/t_265/pl/1034235850/1/1
p1631
tp1632
sV1008456230
p1633
(Vhttps://www.ricardo.ch/de/a/alter-chinesischer-bestickter-seidenstof-1008456230/
p1634
V//style-6a38.kxcdn.com/latest/lib/images/not-loaded.png
p1635
tp1636
sV1041677188
p1637
(Vhttps://www.ricardo.ch/de/a/bild-china-1041677188/
p1638
V//style-6a38.kxcdn.com/latest/lib/images/not-loaded.png
p1639
tp1640
sV1042501656
p1641
(Vhttps://www.ricardo.ch/de/a/dekoartikel-china-1042501656/
p1642
Vhttps://img.ricardostatic.ch/t_265/pl/1042501656/0/1
p1643
tp1644
sV968025632
p1645
(Vhttps://www.ricardo.ch/de/a/anhaenger-obsidian-phoenix-china-_-968025632/
p1646
V//style-6a38.kxcdn.com/latest/lib/images/not-loaded.png
p1647
tp1648
sV1041464160
p1649
(Vhttps://www.ricardo.ch/de/a/fayence-collier-china-1041464160/
p1650
V//style-6a38.kxcdn.com/latest/lib/images/not-loaded.png
p1651
tp1652
sV1017251022
p1653
(Vhttps://www.ricardo.ch/de/a/jade-fo-hund-china-1017251022/
p1654
V//style-6a38.kxcdn.com/latest/lib/images/not-loaded.png
p1655
tp1656
sV1010467016
p1657
(Vhttps://www.ricardo.ch/de/a/alter-kopfschmuck-kind-yi-china-stamm-1010467016/
p1658
V//style-6a38.kxcdn.com/latest/lib/images/not-loaded.png
p1659
tp1660
sV1042089056
p1661
(Vhttps://www.ricardo.ch/de/a/antike-chinesische-ducktafel-woodblock-1042089056/
p1662
Vhttps://img.ricardostatic.ch/t_265/pl/1042089056/0/1
p1663
tp1664
sV1041919088
p1665
(Vhttps://www.ricardo.ch/de/a/brule-parfum-chinois-qing-dynastie-1041919088/
p1666
V//style-6a38.kxcdn.com/latest/lib/images/not-loaded.png
p1667
tp1668
sV1025564714
p1669
(Vhttps://www.ricardo.ch/de/a/chinesische-opium-pfeife-1025564714/
p1670
Vhttps://img.ricardostatic.ch/t_265/pl/1025564714/0/1
p1671
tp1672
sV1042922210
p1673
(Vhttps://www.ricardo.ch/de/a/buddhabrosche-tempel-china-1042922210/
p1674
V//style-6a38.kxcdn.com/latest/lib/images/not-loaded.png
p1675
tp1676
sV976465200
p1677
(Vhttps://www.ricardo.ch/de/a/antik-cloisonne-vase-ca.1900-ca.-40-cm-976465200/
p1678
Vhttps://img.ricardostatic.ch/t_265/pl/976465200/0/1
p1679
tp1680
sV1038645858
p1681
(Vhttps://www.ricardo.ch/de/a/china-rotlack-teekanne-mit-goldfisch-sig-1038645858/
p1682
V//style-6a38.kxcdn.com/latest/lib/images/not-loaded.png
p1683
tp1684
sV958663418
p1685
(Vhttps://www.ricardo.ch/de/a/3-stk.-chineschische-katzen-958663418/
p1686
V//style-6a38.kxcdn.com/latest/lib/images/not-loaded.png
p1687
tp1688
sV1042732374
p1689
(Vhttps://www.ricardo.ch/de/a/antikes-japan-china-buch-1042732374/
p1690
V//style-6a38.kxcdn.com/latest/lib/images/not-loaded.png
p1691
tp1692
sV1042730800
p1693
(Vhttps://www.ricardo.ch/de/a/tibet-amulette-en-bronze-1042730800/
p1694
V//style-6a38.kxcdn.com/latest/lib/images/not-loaded.png
p1695
tp1696
sV1028979184
p1697
(Vhttps://www.ricardo.ch/de/a/chinesisches-rollbild-1028979184/
p1698
V//style-6a38.kxcdn.com/latest/lib/images/not-loaded.png
p1699
tp1700
sV977200298
p1701
(Vhttps://www.ricardo.ch/de/a/aelteres-chinesisches-jadeamulett-977200298/
p1702
V//style-6a38.kxcdn.com/latest/lib/images/not-loaded.png
p1703
tp1704
sV1035806988
p1705
(Vhttps://www.ricardo.ch/de/a/schoene-seladon-porzellanvase-china-1035806988/
p1706
V//style-6a38.kxcdn.com/latest/lib/images/not-loaded.png
p1707
tp1708
sV1029630500
p1709
(Vhttps://www.ricardo.ch/de/a/anhaenger-jade-wasserbueffel-zodiac-china_-1029630500/
p1710
V//style-6a38.kxcdn.com/latest/lib/images/not-loaded.png
p1711
tp1712
sV1009806654
p1713
(Vhttps://www.ricardo.ch/de/a/oel-essig-salzbehaelter-viktora-china-1009806654/
p1714
V//style-6a38.kxcdn.com/latest/lib/images/not-loaded.png
p1715
tp1716
sV1030445312
p1717
(Vhttps://www.ricardo.ch/de/a/jade-anhaenger-2-ringe-lavendel-1030445312/
p1718
V//style-6a38.kxcdn.com/latest/lib/images/not-loaded.png
p1719
tp1720
sV1033597602
p1721
(Vhttps://www.ricardo.ch/de/a/chinesisches-seidenbild-gestickt-1033597602/
p1722
Vhttps://img.ricardostatic.ch/t_265/pl/1033597602/0/1
p1723
tp1724
sV1006665054
p1725
(Vhttps://www.ricardo.ch/de/a/3-phrenite-geschnitzt-tintenfaesser-china-1006665054/
p1726
V//style-6a38.kxcdn.com/latest/lib/images/not-loaded.png
p1727
tp1728
sV983854466
p1729
(Vhttps://www.ricardo.ch/de/a/4-anhaenger-c-drachen-stein-china-_-983854466/
p1730
Vhttps://img.ricardostatic.ch/t_265/pl/983854466/0/1
p1731
tp1732
sV1010536314
p1733
(Vhttps://www.ricardo.ch/de/a/armreif-miao-silber-mit-schildchroettli-1010536314/
p1734
V//style-6a38.kxcdn.com/latest/lib/images/not-loaded.png
p1735
tp1736
sV1016826482
p1737
(Vhttps://www.ricardo.ch/de/a/alte-vase-aus-china!-n-1061-1016826482/
p1738
V//style-6a38.kxcdn.com/latest/lib/images/not-loaded.png
p1739
tp1740
sV989129270
p1741
(Vhttps://www.ricardo.ch/de/a/antike-chinesische-holzfigur-989129270/
p1742
V//style-6a38.kxcdn.com/latest/lib/images/not-loaded.png
p1743
tp1744
sV1028574944
p1745
(Vhttps://www.ricardo.ch/de/a/antikes-chinesisches-reispapierbild-no4-1028574944/
p1746
V//style-6a38.kxcdn.com/latest/lib/images/not-loaded.png
p1747
tp1748
sV977406032
p1749
(Vhttps://www.ricardo.ch/de/a/teekrug-porzellan-aus-china-antik-977406032/
p1750
V//style-6a38.kxcdn.com/latest/lib/images/not-loaded.png
p1751
tp1752
sV1038696892
p1753
(Vhttps://www.ricardo.ch/de/a/alter-chinesischer-seidenhut-m.stickerei-1038696892/
p1754
V//style-6a38.kxcdn.com/latest/lib/images/not-loaded.png
p1755
tp1756
sV1035801146
p1757
(Vhttps://www.ricardo.ch/de/a/6-cuilleres-en-porcelaine-chine-1035801146/
p1758
V//style-6a38.kxcdn.com/latest/lib/images/not-loaded.png
p1759
tp1760
sV1038696896
p1761
(Vhttps://www.ricardo.ch/de/a/3-alte-chinesische-haarnadeln-aus-metall-1038696896/
p1762
V//style-6a38.kxcdn.com/latest/lib/images/not-loaded.png
p1763
tp1764
sV1038696894
p1765
(Vhttps://www.ricardo.ch/de/a/alte-chinesische-haarnadel-brautschmuck-1038696894/
p1766
Vhttps://img.ricardostatic.ch/t_265/pl/1038696894/0/1
p1767
tp1768
sV1022758846
p1769
(Vhttps://www.ricardo.ch/de/a/shoushan-stein-hand-geschnitzter-loewe-1022758846/
p1770
V//style-6a38.kxcdn.com/latest/lib/images/not-loaded.png
p1771
tp1772
sV1041065046
p1773
(Vhttps://www.ricardo.ch/de/a/chinesische-teedose-aus-porzellan-1041065046/
p1774
V//style-6a38.kxcdn.com/latest/lib/images/not-loaded.png
p1775
tp1776
sV773141016
p1777
(Vhttps://www.ricardo.ch/de/a/magic-lantern-slide-china-chine-773141016/
p1778
V//style-6a38.kxcdn.com/latest/lib/images/not-loaded.png
p1779
tp1780
sV989168512
p1781
(Vhttps://www.ricardo.ch/de/a/tintenstein-aus-china-989168512/
p1782
V//style-6a38.kxcdn.com/latest/lib/images/not-loaded.png
p1783
tp1784
sV1029984154
p1785
(Vhttps://www.ricardo.ch/de/a/jadekugel-kette-1029984154/
p1786
V//style-6a38.kxcdn.com/latest/lib/images/not-loaded.png
p1787
tp1788
sV1043159270
p1789
(Vhttps://www.ricardo.ch/de/a/chinesischer-weiser-%E2%80%93-maske-1043159270/
p1790
V//style-6a38.kxcdn.com/latest/lib/images/not-loaded.png
p1791
tp1792
sV1042520322
p1793
(Vhttps://www.ricardo.ch/de/a/japan-china-kalligraphie-pinsel-jade-1042520322/
p1794
V//style-6a38.kxcdn.com/latest/lib/images/not-loaded.png
p1795
tp1796
sV1042968404
p1797
(Vhttps://www.ricardo.ch/de/a/chinesische-teetasse-porzellan-1042968404/
p1798
V//style-6a38.kxcdn.com/latest/lib/images/not-loaded.png
p1799
tp1800
sV1031593742
p1801
(Vhttps://www.ricardo.ch/de/a/asia-couchtisch-perlmutt-1031593742/
p1802
V//style-6a38.kxcdn.com/latest/lib/images/not-loaded.png
p1803
tp1804
sV1041686868
p1805
(Vhttps://www.ricardo.ch/de/a/cloisonne-kleine-alte-schale-1041686868/
p1806
V//style-6a38.kxcdn.com/latest/lib/images/not-loaded.png
p1807
tp1808
sV1035802222
p1809
(Vhttps://www.ricardo.ch/de/a/porcelaines-2-bols-2-sous-tasses-chine-1035802222/
p1810
V//style-6a38.kxcdn.com/latest/lib/images/not-loaded.png
p1811
tp1812
sV1007640684
p1813
(Vhttps://www.ricardo.ch/de/a/porzellanvase-aussergewoehnliche-glasur-1007640684/
p1814
V//style-6a38.kxcdn.com/latest/lib/images/not-loaded.png
p1815
tp1816
sV1042136108
p1817
(Vhttps://www.ricardo.ch/de/a/antikes-email-doeschen-china-19jh.-1042136108/
p1818
Vhttps://img.ricardostatic.ch/t_265/pl/1042136108/0/1
p1819
tp1820
sV993814476
p1821
(Vhttps://www.ricardo.ch/de/a/kleine-alte-chin.-schaleloeffel-fam.rose-993814476/
p1822
V//style-6a38.kxcdn.com/latest/lib/images/not-loaded.png
p1823
tp1824
sV886104266
p1825
(Vhttps://www.ricardo.ch/de/a/chinesischer-spieltisch-60x60-120x120-886104266/
p1826
V//style-6a38.kxcdn.com/latest/lib/images/not-loaded.png
p1827
tp1828
sV1039839120
p1829
(Vhttps://www.ricardo.ch/de/a/bol-dynastie-song-song-dynastie-schale-1039839120/
p1830
V//style-6a38.kxcdn.com/latest/lib/images/not-loaded.png
p1831
tp1832
sV1042915078
p1833
(Vhttps://www.ricardo.ch/de/a/antique-china-porcellan-1042915078/
p1834
V//style-6a38.kxcdn.com/latest/lib/images/not-loaded.png
p1835
tp1836
sV1042964078
p1837
(Vhttps://www.ricardo.ch/de/a/david-hockney-1042964078/
p1838
V//style-6a38.kxcdn.com/latest/lib/images/not-loaded.png
p1839
tp1840
sV1038325772
p1841
(Vhttps://www.ricardo.ch/de/a/buddha-holz-gelackt-und-vergoldet-1038325772/
p1842
V//style-6a38.kxcdn.com/latest/lib/images/not-loaded.png
p1843
tp1844
sV1008682270
p1845
(Vhttps://www.ricardo.ch/de/a/antiker-chinesischer-phoenix-teller-1008682270/
p1846
V//style-6a38.kxcdn.com/latest/lib/images/not-loaded.png
p1847
tp1848
sV1040992042
p1849
(Vhttps://www.ricardo.ch/de/a/chien-fu-en-porcelaine-bleu-1040992042/
p1850
V//style-6a38.kxcdn.com/latest/lib/images/not-loaded.png
p1851
tp1852
sV1009090730
p1853
(Vhttps://www.ricardo.ch/de/a/die-welt-als-garten-china-r.-rainer-1009090730/
p1854
V//style-6a38.kxcdn.com/latest/lib/images/not-loaded.png
p1855
tp1856
sV1037996846
p1857
(Vhttps://www.ricardo.ch/de/a/1-ei-cloisonne-im-hoch-relief-gearbeitet-1037996846/
p1858
V//style-6a38.kxcdn.com/latest/lib/images/not-loaded.png
p1859
tp1860
sV1004694716
p1861
(Vhttps://www.ricardo.ch/de/a/mf-763-cabrio-aus-den-60-70er-china-1004694716/
p1862
V//style-6a38.kxcdn.com/latest/lib/images/not-loaded.png
p1863
tp1864
sV1015216690
p1865
(Vhttps://www.ricardo.ch/de/a/2-chinesische-kalligraphie-themenbilder-1015216690/
p1866
V//style-6a38.kxcdn.com/latest/lib/images/not-loaded.png
p1867
tp1868
sV978244740
p1869
(Vhttps://www.ricardo.ch/de/a/(b97)-francois-cheng-shitao-1642-1707-978244740/
p1870
V//style-6a38.kxcdn.com/latest/lib/images/not-loaded.png
p1871
tp1872
sV996123034
p1873
(Vhttps://www.ricardo.ch/de/a/filigrane-chinesische-korkschnitzerei-996123034/
p1874
V//style-6a38.kxcdn.com/latest/lib/images/not-loaded.png
p1875
tp1876
sV978244742
p1877
(Vhttps://www.ricardo.ch/de/a/(b98)-francois-cheng-chu-ta-1626-1705-978244742/
p1878
V//style-6a38.kxcdn.com/latest/lib/images/not-loaded.png
p1879
tp1880
sV1028156946
p1881
(Vhttps://www.ricardo.ch/de/a/chinesisches-siegel-geschnitzt-um-1900-1028156946/
p1882
Vhttps://img.ricardostatic.ch/t_265/pl/1028156946/0/1
p1883
tp1884
sV1023352674
p1885
(Vhttps://www.ricardo.ch/de/a/antikes-chinesisches-gemaelde-1023352674/
p1886
V//style-6a38.kxcdn.com/latest/lib/images/not-loaded.png
p1887
tp1888
sV1033473352
p1889
(Vhttps://www.ricardo.ch/de/a/china-figur-kaiserin-1033473352/
p1890
V//style-6a38.kxcdn.com/latest/lib/images/not-loaded.png
p1891
tp1892
sV1034282664
p1893
(Vhttps://www.ricardo.ch/de/a/chinesische-skulptur-schnitzerei-holz-1034282664/
p1894
V//style-6a38.kxcdn.com/latest/lib/images/not-loaded.png
p1895
tp1896
sV987627106
p1897
(Vhttps://www.ricardo.ch/de/a/schoene-nephrit-stempel-china-987627106/
p1898
V//style-6a38.kxcdn.com/latest/lib/images/not-loaded.png
p1899
tp1900
sV1028161864
p1901
(Vhttps://www.ricardo.ch/de/a/chinesisches-pinsel-set-kalligraphie-1028161864/
p1902
V//style-6a38.kxcdn.com/latest/lib/images/not-loaded.png
p1903
tp1904
sV1026932238
p1905
(Vhttps://www.ricardo.ch/de/a/chinesischer-schreibtisch-1026932238/
p1906
V//style-6a38.kxcdn.com/latest/lib/images/not-loaded.png
p1907
tp1908
sV1042594138
p1909
(Vhttps://www.ricardo.ch/de/a/pinsel-becher-aus-porzellan-1042594138/
p1910
V//style-6a38.kxcdn.com/latest/lib/images/not-loaded.png
p1911
tp1912
sV979765620
p1913
(Vhttps://www.ricardo.ch/de/a/(c64)-die-keramik-der-song-zeit-(china)-979765620/
p1914
V//style-6a38.kxcdn.com/latest/lib/images/not-loaded.png
p1915
tp1916
sV991047804
p1917
(Vhttps://www.ricardo.ch/de/a/china-propaganda-mao-1970er-jahre-991047804/
p1918
Vhttps://img.ricardostatic.ch/t_265/pl/991047804/0/1
p1919
tp1920
sV1025594602
p1921
(Vhttps://www.ricardo.ch/de/a/anhaenger-2-drachen-jade-achat-china-_-1025594602/
p1922
V//style-6a38.kxcdn.com/latest/lib/images/not-loaded.png
p1923
tp1924
sV1038391914
p1925
(Vhttps://www.ricardo.ch/de/a/antike-chinesische-teedose-1038391914/
p1926
Vhttps://img.ricardostatic.ch/t_265/pl/1038391914/0/1
p1927
tp1928
sV1012717148
p1929
(Vhttps://www.ricardo.ch/de/a/4-bilder-china-asien-asia-vom-globus-1012717148/
p1930
V//style-6a38.kxcdn.com/latest/lib/images/not-loaded.png
p1931
tp1932
sV1039607928
p1933
(Vhttps://www.ricardo.ch/de/a/ethnische-kunst-chinesischer-drache-1039607928/
p1934
V//style-6a38.kxcdn.com/latest/lib/images/not-loaded.png
p1935
tp1936
sV1011427388
p1937
(Vhttps://www.ricardo.ch/de/a/filigraner-jade-anhaenger-guan-yin-china_-1011427388/
p1938
V//style-6a38.kxcdn.com/latest/lib/images/not-loaded.png
p1939
tp1940
sV1037748898
p1941
(Vhttps://www.ricardo.ch/de/a/(22)-zitan-holz-stueck-china-1037748898/
p1942
V//style-6a38.kxcdn.com/latest/lib/images/not-loaded.png
p1943
tp1944
sV1014052296
p1945
(Vhttps://www.ricardo.ch/de/a/edler-anhaenger-unendlichkeit-jade-china_-1014052296/
p1946
V//style-6a38.kxcdn.com/latest/lib/images/not-loaded.png
p1947
tp1948
sV1038179448
p1949
(Vhttps://www.ricardo.ch/de/a/chinesisches-novellenbuch.-1038179448/
p1950
V//style-6a38.kxcdn.com/latest/lib/images/not-loaded.png
p1951
tp1952
sV1027161268
p1953
(Vhttps://www.ricardo.ch/de/a/acryl-bild-mit-chinesischen-schriftz.-1027161268/
p1954
V//style-6a38.kxcdn.com/latest/lib/images/not-loaded.png
p1955
tp1956
sV1041529930
p1957
(Vhttps://www.ricardo.ch/de/a/vergoldeter-chinesischer-faecher-1041529930/
p1958
V//style-6a38.kxcdn.com/latest/lib/images/not-loaded.png
p1959
tp1960
sV973664264
p1961
(Vhttps://www.ricardo.ch/de/a/antiker-teekrug-china-973664264/
p1962
V//style-6a38.kxcdn.com/latest/lib/images/not-loaded.png
p1963
tp1964
sV1041293664
p1965
(Vhttps://www.ricardo.ch/de/a/china-service-1041293664/
p1966
V//style-6a38.kxcdn.com/latest/lib/images/not-loaded.png
p1967
tp1968
sV978576402
p1969
(Vhttps://www.ricardo.ch/de/a/alte-tintenstein-china-120-150-hahre-alt-978576402/
p1970
V//style-6a38.kxcdn.com/latest/lib/images/not-loaded.png
p1971
tp1972
sV989175080
p1973
(Vhttps://www.ricardo.ch/de/a/altes-chinesisches-gefaess-fuer-pinsel-989175080/
p1974
V//style-6a38.kxcdn.com/latest/lib/images/not-loaded.png
p1975
tp1976
sV1032172728
p1977
(Vhttps://www.ricardo.ch/de/a/foto-auf-leinwand-grosse-mauer-in-china-1032172728/
p1978
Vhttps://img.ricardostatic.ch/t_265/pl/1032172728/0/1
p1979
tp1980
sV976132170
p1981
(Vhttps://www.ricardo.ch/de/a/snuff-bottle-jade-china-_-976132170/
p1982
V//style-6a38.kxcdn.com/latest/lib/images/not-loaded.png
p1983
tp1984
sV1020210472
p1985
(Vhttps://www.ricardo.ch/de/a/tee-set-aus-china-blue-dragon-1020210472/
p1986
V//style-6a38.kxcdn.com/latest/lib/images/not-loaded.png
p1987
tp1988
sV864848498
p1989
(Vhttps://www.ricardo.ch/de/a/chinesisches-schreibtisch-set-10-teilig-864848498/
p1990
V//style-6a38.kxcdn.com/latest/lib/images/not-loaded.png
p1991
tp1992
sV1023549084
p1993
(Vhttps://www.ricardo.ch/de/a/china-100-jaehrig-sideboard-graugruen-1023549084/
p1994
V//style-6a38.kxcdn.com/latest/lib/images/not-loaded.png
p1995
tp1996
sV1043005232
p1997
(Vhttps://www.ricardo.ch/de/a/alter-chinesischer-teekrug-1043005232/
p1998
V//style-6a38.kxcdn.com/latest/lib/images/not-loaded.png
p1999
tp2000
sV1027509940
p2001
(Vhttps://www.ricardo.ch/de/a/edler-armreif-jade-china-_-1027509940/
p2002
V//style-6a38.kxcdn.com/latest/lib/images/not-loaded.png
p2003
tp2004
sV1028171868
p2005
(Vhttps://www.ricardo.ch/de/a/3-anhaenger-jade-china-zodiac-buddha-_-1028171868/
p2006
V//style-6a38.kxcdn.com/latest/lib/images/not-loaded.png
p2007
tp2008
sV1029981560
p2009
(Vhttps://www.ricardo.ch/de/a/alter-chinesischer-gewichtstein-drachen-1029981560/
p2010
V//style-6a38.kxcdn.com/latest/lib/images/not-loaded.png
p2011
tp2012
sV1020864684
p2013
(Vhttps://www.ricardo.ch/de/a/kleiner-leder-koffer-china-um-1930-1020864684/
p2014
V//style-6a38.kxcdn.com/latest/lib/images/not-loaded.png
p2015
tp2016
sV1031825256
p2017
(Vhttps://www.ricardo.ch/de/a/handgemaltes-chinesisches-bild-1031825256/
p2018
V//style-6a38.kxcdn.com/latest/lib/images/not-loaded.png
p2019
tp2020
sV978463008
p2021
(Vhttps://www.ricardo.ch/de/a/6er-blaumocca-setchina-978463008/
p2022
V//style-6a38.kxcdn.com/latest/lib/images/not-loaded.png
p2023
tp2024
sV1035985346
p2025
(Vhttps://www.ricardo.ch/de/a/china-guardian-lion-serpentin-1035985346/
p2026
V//style-6a38.kxcdn.com/latest/lib/images/not-loaded.png
p2027
tp2028
sV989160716
p2029
(Vhttps://www.ricardo.ch/de/a/altes-chinesisches-porzellankopfkissen-989160716/
p2030
V//style-6a38.kxcdn.com/latest/lib/images/not-loaded.png
p2031
tp2032
sV1040630620
p2033
(Vhttps://www.ricardo.ch/de/a/jade-baum-china-1040630620/
p2034
V//style-6a38.kxcdn.com/latest/lib/images/not-loaded.png
p2035
tp2036
sV1025046316
p2037
(Vhttps://www.ricardo.ch/de/a/chinese-jade-nephrite-talisman-1025046316/
p2038
V//style-6a38.kxcdn.com/latest/lib/images/not-loaded.png
p2039
tp2040
sV1043286768
p2041
(Vhttps://www.ricardo.ch/de/a/chinesisches-steingut-pferd!-1043286768/
p2042
V//style-6a38.kxcdn.com/latest/lib/images/not-loaded.png
p2043
tp2044
sV1041642166
p2045
(Vhttps://www.ricardo.ch/de/a/chinese-naturel-jade-figure-buddha-1041642166/
p2046
V//style-6a38.kxcdn.com/latest/lib/images/not-loaded.png
p2047
tp2048
sV1039632628
p2049
(Vhttps://www.ricardo.ch/de/a/drachenstempel-china-alter-4060-gr.-1039632628/
p2050
V//style-6a38.kxcdn.com/latest/lib/images/not-loaded.png
p2051
tp2052
sV1035887602
p2053
(Vhttps://www.ricardo.ch/de/a/vintage-100-seidenteppich-aus-china-1035887602/
p2054
V//style-6a38.kxcdn.com/latest/lib/images/not-loaded.png
p2055
tp2056
sV1037739204
p2057
(Vhttps://www.ricardo.ch/de/a/antikes-chinesisches-teeset-(6-teilig)-1037739204/
p2058
V//style-6a38.kxcdn.com/latest/lib/images/not-loaded.png
p2059
tp2060
sV995287814
p2061
(Vhttps://www.ricardo.ch/de/a/feiner-armreif-jade-china-_-995287814/
p2062
V//style-6a38.kxcdn.com/latest/lib/images/not-loaded.png
p2063
tp2064
sV1002891396
p2065
(Vhttps://www.ricardo.ch/de/a/edler-anhaenger-tiefgruene-jade-china-_-1002891396/
p2066
V//style-6a38.kxcdn.com/latest/lib/images/not-loaded.png
p2067
tp2068
sV967186654
p2069
(Vhttps://www.ricardo.ch/de/a/2-porzellan-vasen-china-967186654/
p2070
V//style-6a38.kxcdn.com/latest/lib/images/not-loaded.png
p2071
tp2072
s.